
../../../Binaries/PulsesSensor_OM15082/PulsesSensor_OM15082.axf:     file format elf32-littlearm


Disassembly of section .text:

00000180 <ResetISR>:
     180:	4804      	ldr	r0, [pc, #16]	; (194 <masterboot+0x4>)
     182:	6800      	ldr	r0, [r0, #0]
     184:	0000      	movs	r0, r0
     186:	d003      	beq.n	190 <masterboot>
     188:	4903      	ldr	r1, [pc, #12]	; (198 <masterboot+0x8>)
     18a:	6809      	ldr	r1, [r1, #0]
     18c:	468d      	mov	sp, r1
     18e:	4700      	bx	r0

00000190 <masterboot>:
     190:	4802      	ldr	r0, [pc, #8]	; (19c <masterboot+0xc>)
     192:	4700      	bx	r0
     194:	40000804 	.word	0x40000804
     198:	40000808 	.word	0x40000808
     19c:	0000021f 	.word	0x0000021f

000001a0 <ADC_SEQA_IRQHandler>:
     1a0:	e7fe      	b.n	1a0 <ADC_SEQA_IRQHandler>

000001a2 <NMI_Handler>:
     1a2:	e7fe      	b.n	1a2 <NMI_Handler>
     1a4:	e7fe      	b.n	1a4 <NMI_Handler+0x2>
     1a6:	e7fe      	b.n	1a6 <NMI_Handler+0x4>
     1a8:	e7fe      	b.n	1a8 <NMI_Handler+0x6>
     1aa:	e7fe      	b.n	1aa <NMI_Handler+0x8>

000001ac <SVC_Handler>:
     1ac:	e7fe      	b.n	1ac <SVC_Handler>

000001ae <DebugMon_Handler>:
     1ae:	e7fe      	b.n	1ae <DebugMon_Handler>

000001b0 <PendSV_Handler>:
     1b0:	e7fe      	b.n	1b0 <PendSV_Handler>
     1b2:	e7fe      	b.n	1b2 <PendSV_Handler+0x2>

000001b4 <MAC_154_IRQHandler>:
     1b4:	b508      	push	{r3, lr}
     1b6:	4b06      	ldr	r3, [pc, #24]	; (1d0 <MAC_154_IRQHandler+0x1c>)
     1b8:	b113      	cbz	r3, 1c0 <MAC_154_IRQHandler+0xc>
     1ba:	f023 fbf9 	bl	239b0 <vMMAC_IntHandlerBbc>
     1be:	bd08      	pop	{r3, pc}
     1c0:	4b04      	ldr	r3, [pc, #16]	; (1d4 <MAC_154_IRQHandler+0x20>)
     1c2:	b113      	cbz	r3, 1ca <MAC_154_IRQHandler+0x16>
     1c4:	f027 f8f0 	bl	273a8 <__ZIGBEE_MAC_IRQHandler_veneer>
     1c8:	e7f9      	b.n	1be <MAC_154_IRQHandler+0xa>
     1ca:	f7ff ffe9 	bl	1a0 <ADC_SEQA_IRQHandler>
     1ce:	bf00      	nop
     1d0:	000239b1 	.word	0x000239b1
     1d4:	03006b65 	.word	0x03006b65

000001d8 <MODEM_154_IRQHandler>:
     1d8:	b508      	push	{r3, lr}
     1da:	4b06      	ldr	r3, [pc, #24]	; (1f4 <MODEM_154_IRQHandler+0x1c>)
     1dc:	b113      	cbz	r3, 1e4 <MODEM_154_IRQHandler+0xc>
     1de:	f023 fbff 	bl	239e0 <vMMAC_IntHandlerPhy>
     1e2:	bd08      	pop	{r3, pc}
     1e4:	4b04      	ldr	r3, [pc, #16]	; (1f8 <MODEM_154_IRQHandler+0x20>)
     1e6:	b113      	cbz	r3, 1ee <MODEM_154_IRQHandler+0x16>
     1e8:	f027 f8da 	bl	273a0 <__ZIGBEE_MODEM_IRQHandler_veneer>
     1ec:	e7f9      	b.n	1e2 <MODEM_154_IRQHandler+0xa>
     1ee:	f7ff ffd7 	bl	1a0 <ADC_SEQA_IRQHandler>
     1f2:	bf00      	nop
     1f4:	000239e1 	.word	0x000239e1
     1f8:	03000151 	.word	0x03000151

000001fc <data_init>:
     1fc:	440a      	add	r2, r1
     1fe:	1a40      	subs	r0, r0, r1
     200:	4291      	cmp	r1, r2
     202:	d300      	bcc.n	206 <INT_STORAGE_SECTOR_SIZE+0x6>
     204:	4770      	bx	lr
     206:	580b      	ldr	r3, [r1, r0]
     208:	f841 3b04 	str.w	r3, [r1], #4
     20c:	e7f8      	b.n	200 <INT_STORAGE_SECTOR_SIZE>

0000020e <bss_init>:
     20e:	4401      	add	r1, r0
     210:	2300      	movs	r3, #0
     212:	4288      	cmp	r0, r1
     214:	d300      	bcc.n	218 <bss_init+0xa>
     216:	4770      	bx	lr
     218:	f840 3b04 	str.w	r3, [r0], #4
     21c:	e7f9      	b.n	212 <bss_init+0x4>

0000021e <ResetISR2>:
     21e:	b570      	push	{r4, r5, r6, lr}
     220:	f04f 4580 	mov.w	r5, #1073741824	; 0x40000000
     224:	2303      	movs	r3, #3
     226:	f8c5 3280 	str.w	r3, [r5, #640]	; 0x280
     22a:	4b2e      	ldr	r3, [pc, #184]	; (2e4 <ResetISR2+0xc6>)
     22c:	b98b      	cbnz	r3, 252 <ResetISR2+0x34>
     22e:	4c2e      	ldr	r4, [pc, #184]	; (2e8 <ResetISR2+0xca>)
     230:	4d2e      	ldr	r5, [pc, #184]	; (2ec <ResetISR2+0xce>)
     232:	42ac      	cmp	r4, r5
     234:	d348      	bcc.n	2c8 <ResetISR2+0xaa>
     236:	4a2e      	ldr	r2, [pc, #184]	; (2f0 <ResetISR2+0xd2>)
     238:	4c2e      	ldr	r4, [pc, #184]	; (2f4 <HEAP_SIZE>)
     23a:	42a2      	cmp	r2, r4
     23c:	d34b      	bcc.n	2d6 <ResetISR2+0xb8>
     23e:	4b2e      	ldr	r3, [pc, #184]	; (2f8 <HEAP_SIZE+0x4>)
     240:	4a2e      	ldr	r2, [pc, #184]	; (2fc <HEAP_SIZE+0x8>)
     242:	601a      	str	r2, [r3, #0]
     244:	4b2e      	ldr	r3, [pc, #184]	; (300 <HEAP_SIZE+0xc>)
     246:	b10b      	cbz	r3, 24c <ResetISR2+0x2e>
     248:	f003 f85a 	bl	3300 <SystemInit>
     24c:	f007 fe08 	bl	7e60 <main>
     250:	e7fe      	b.n	250 <ResetISR2+0x32>
     252:	4b2c      	ldr	r3, [pc, #176]	; (304 <HEAP_SIZE+0x10>)
     254:	6f1c      	ldr	r4, [r3, #112]	; 0x70
     256:	f8d3 60b0 	ldr.w	r6, [r3, #176]	; 0xb0
     25a:	4b2b      	ldr	r3, [pc, #172]	; (308 <HEAP_SIZE+0x14>)
     25c:	f004 047f 	and.w	r4, r4, #127	; 0x7f
     260:	4798      	blx	r3
     262:	2c40      	cmp	r4, #64	; 0x40
     264:	d1e3      	bne.n	22e <ResetISR2+0x10>
     266:	4b29      	ldr	r3, [pc, #164]	; (30c <HEAP_SIZE+0x18>)
     268:	4033      	ands	r3, r6
     26a:	2b04      	cmp	r3, #4
     26c:	d1df      	bne.n	22e <ResetISR2+0x10>
     26e:	2802      	cmp	r0, #2
     270:	d1dd      	bne.n	22e <ResetISR2+0x10>
     272:	f8d5 3808 	ldr.w	r3, [r5, #2056]	; 0x808
     276:	b113      	cbz	r3, 27e <ResetISR2+0x60>
     278:	4927      	ldr	r1, [pc, #156]	; (318 <HEAP_SIZE+0x24>)
     27a:	6809      	ldr	r1, [r1, #0]
     27c:	468d      	mov	sp, r1
     27e:	4c24      	ldr	r4, [pc, #144]	; (310 <HEAP_SIZE+0x1c>)
     280:	b994      	cbnz	r4, 2a8 <ResetISR2+0x8a>
     282:	4a24      	ldr	r2, [pc, #144]	; (314 <HEAP_SIZE+0x20>)
     284:	b9da      	cbnz	r2, 2be <ResetISR2+0xa0>
     286:	4b1c      	ldr	r3, [pc, #112]	; (2f8 <HEAP_SIZE+0x4>)
     288:	4a1c      	ldr	r2, [pc, #112]	; (2fc <HEAP_SIZE+0x8>)
     28a:	601a      	str	r2, [r3, #0]
     28c:	4b1c      	ldr	r3, [pc, #112]	; (300 <HEAP_SIZE+0xc>)
     28e:	b9c3      	cbnz	r3, 2c2 <ResetISR2+0xa4>
     290:	f006 feb6 	bl	7000 <WarmMain>
     294:	e7fe      	b.n	294 <ResetISR2+0x76>
     296:	e9d4 0100 	ldrd	r0, r1, [r4]
     29a:	68a2      	ldr	r2, [r4, #8]
     29c:	340c      	adds	r4, #12
     29e:	f7ff ffad 	bl	1fc <data_init>
     2a2:	42ac      	cmp	r4, r5
     2a4:	d3f7      	bcc.n	296 <ResetISR2+0x78>
     2a6:	e7ec      	b.n	282 <ResetISR2+0x64>
     2a8:	4d10      	ldr	r5, [pc, #64]	; (2ec <ResetISR2+0xce>)
     2aa:	e7fa      	b.n	2a2 <ResetISR2+0x84>
     2ac:	f852 0b08 	ldr.w	r0, [r2], #8
     2b0:	f852 1c04 	ldr.w	r1, [r2, #-4]
     2b4:	f7ff ffab 	bl	20e <bss_init>
     2b8:	42a2      	cmp	r2, r4
     2ba:	d3f7      	bcc.n	2ac <ResetISR2+0x8e>
     2bc:	e7e3      	b.n	286 <ResetISR2+0x68>
     2be:	4c0d      	ldr	r4, [pc, #52]	; (2f4 <HEAP_SIZE>)
     2c0:	e7fa      	b.n	2b8 <ResetISR2+0x9a>
     2c2:	f003 f81d 	bl	3300 <SystemInit>
     2c6:	e7e3      	b.n	290 <ResetISR2+0x72>
     2c8:	e9d4 0100 	ldrd	r0, r1, [r4]
     2cc:	68a2      	ldr	r2, [r4, #8]
     2ce:	340c      	adds	r4, #12
     2d0:	f7ff ff94 	bl	1fc <data_init>
     2d4:	e7ad      	b.n	232 <ResetISR2+0x14>
     2d6:	f852 0b08 	ldr.w	r0, [r2], #8
     2da:	f852 1c04 	ldr.w	r1, [r2, #-4]
     2de:	f7ff ff96 	bl	20e <bss_init>
     2e2:	e7aa      	b.n	23a <ResetISR2+0x1c>
     2e4:	00007001 	.word	0x00007001
     2e8:	00000120 	.word	0x00000120
     2ec:	00000144 	.word	0x00000144
     2f0:	00000150 	.word	0x00000150
     2f4:	00000168 	.word	0x00000168
     2f8:	e000ed08 	.word	0xe000ed08
     2fc:	00000000 	.word	0x00000000
     300:	00003301 	.word	0x00003301
     304:	40012000 	.word	0x40012000
     308:	03000e9d 	.word	0x03000e9d
     30c:	00020004 	.word	0x00020004
     310:	00000138 	.word	0x00000138
     314:	00000160 	.word	0x00000160
     318:	40000808 	.word	0x40000808

0000031c <System_IRQHandler>:
     31c:	4b1f      	ldr	r3, [pc, #124]	; (39c <System_IRQHandler+0x80>)
     31e:	4920      	ldr	r1, [pc, #128]	; (3a0 <System_IRQHandler+0x84>)
     320:	681a      	ldr	r2, [r3, #0]
     322:	6f09      	ldr	r1, [r1, #112]	; 0x70
     324:	06c9      	lsls	r1, r1, #27
     326:	b510      	push	{r4, lr}
     328:	f002 040c 	and.w	r4, r2, #12
     32c:	d511      	bpl.n	352 <System_IRQHandler+0x36>
     32e:	f044 0404 	orr.w	r4, r4, #4
     332:	681a      	ldr	r2, [r3, #0]
     334:	4819      	ldr	r0, [pc, #100]	; (39c <System_IRQHandler+0x80>)
     336:	f022 0201 	bic.w	r2, r2, #1
     33a:	601a      	str	r2, [r3, #0]
     33c:	2104      	movs	r1, #4
     33e:	f003 f8ed 	bl	351c <WWDT_ClearStatusFlags>
     342:	4818      	ldr	r0, [pc, #96]	; (3a4 <System_IRQHandler+0x88>)
     344:	f002 f83a 	bl	23bc <DbgConsole_Printf>
     348:	f3ef 8008 	mrs	r0, MSP
     34c:	f004 ff5e 	bl	520c <ExceptionUnwindStack>
     350:	e001      	b.n	356 <System_IRQHandler+0x3a>
     352:	0752      	lsls	r2, r2, #29
     354:	d4ed      	bmi.n	332 <System_IRQHandler+0x16>
     356:	0723      	lsls	r3, r4, #28
     358:	d51e      	bpl.n	398 <System_IRQHandler+0x7c>
     35a:	4c13      	ldr	r4, [pc, #76]	; (3a8 <System_IRQHandler+0x8c>)
     35c:	480f      	ldr	r0, [pc, #60]	; (39c <System_IRQHandler+0x80>)
     35e:	2108      	movs	r1, #8
     360:	f003 f8dc 	bl	351c <WWDT_ClearStatusFlags>
     364:	7823      	ldrb	r3, [r4, #0]
     366:	2b06      	cmp	r3, #6
     368:	d80c      	bhi.n	384 <System_IRQHandler+0x68>
     36a:	7823      	ldrb	r3, [r4, #0]
     36c:	480b      	ldr	r0, [pc, #44]	; (39c <System_IRQHandler+0x80>)
     36e:	3301      	adds	r3, #1
     370:	b2db      	uxtb	r3, r3
     372:	7023      	strb	r3, [r4, #0]
     374:	f003 f8c8 	bl	3508 <WWDT_Refresh>
     378:	7821      	ldrb	r1, [r4, #0]
     37a:	480c      	ldr	r0, [pc, #48]	; (3ac <System_IRQHandler+0x90>)
     37c:	e8bd 4010 	ldmia.w	sp!, {r4, lr}
     380:	f002 b81c 	b.w	23bc <DbgConsole_Printf>
     384:	7821      	ldrb	r1, [r4, #0]
     386:	480a      	ldr	r0, [pc, #40]	; (3b0 <System_IRQHandler+0x94>)
     388:	f002 f818 	bl	23bc <DbgConsole_Printf>
     38c:	f3ef 8008 	mrs	r0, MSP
     390:	e8bd 4010 	ldmia.w	sp!, {r4, lr}
     394:	f004 bf3a 	b.w	520c <ExceptionUnwindStack>
     398:	bd10      	pop	{r4, pc}
     39a:	bf00      	nop
     39c:	4000a000 	.word	0x4000a000
     3a0:	40012000 	.word	0x40012000
     3a4:	000273b0 	.word	0x000273b0
     3a8:	04012b1a 	.word	0x04012b1a
     3ac:	000273c8 	.word	0x000273c8
     3b0:	000273e3 	.word	0x000273e3

000003b4 <main_task>:
     3b4:	b570      	push	{r4, r5, r6, lr}
     3b6:	4b16      	ldr	r3, [pc, #88]	; (410 <BOOT_RESUME_STACK_SIZE+0x10>)
     3b8:	781a      	ldrb	r2, [r3, #0]
     3ba:	b95a      	cbnz	r2, 3d4 <main_task+0x20>
     3bc:	2201      	movs	r2, #1
     3be:	701a      	strb	r2, [r3, #0]
     3c0:	f005 fdaa 	bl	5f18 <RNG_Init>
     3c4:	f005 fc5c 	bl	5c80 <SecLib_Init>
     3c8:	f005 fe34 	bl	6034 <MEM_Init>
     3cc:	f005 ff06 	bl	61dc <TMR_Init>
     3d0:	f000 fcc0 	bl	d54 <vAppMain>
     3d4:	4a0f      	ldr	r2, [pc, #60]	; (414 <BOOT_RESUME_STACK_SIZE+0x14>)
     3d6:	4e10      	ldr	r6, [pc, #64]	; (418 <BOOT_RESUME_STACK_SIZE+0x18>)
     3d8:	7813      	ldrb	r3, [r2, #0]
     3da:	4d10      	ldr	r5, [pc, #64]	; (41c <BOOT_RESUME_STACK_SIZE+0x1c>)
     3dc:	4c10      	ldr	r4, [pc, #64]	; (420 <BOOT_RESUME_STACK_SIZE+0x20>)
     3de:	f043 0301 	orr.w	r3, r3, #1
     3e2:	7013      	strb	r3, [r2, #0]
     3e4:	f010 fdc2 	bl	10f6c <zps_taskZPS>
     3e8:	f00c f968 	bl	c6bc <bdb_taskBDB>
     3ec:	f002 fcea 	bl	2dc4 <ZTIMER_vTask>
     3f0:	f000 feb4 	bl	115c <APP_taskSensor>
     3f4:	4630      	mov	r0, r6
     3f6:	f003 f887 	bl	3508 <WWDT_Refresh>
     3fa:	2300      	movs	r3, #0
     3fc:	702b      	strb	r3, [r5, #0]
     3fe:	f001 fc53 	bl	1ca8 <vAttemptToSleep>
     402:	f006 fc29 	bl	6c58 <PWR_EnterLowPower>
     406:	7823      	ldrb	r3, [r4, #0]
     408:	2b00      	cmp	r3, #0
     40a:	d1eb      	bne.n	3e4 <main_task+0x30>
     40c:	bd70      	pop	{r4, r5, r6, pc}
     40e:	bf00      	nop
     410:	04012b14 	.word	0x04012b14
     414:	04012a50 	.word	0x04012a50
     418:	4000a000 	.word	0x4000a000
     41c:	04012b1a 	.word	0x04012b1a
     420:	0002a8a0 	.word	0x0002a8a0

00000424 <APP_vSetUpHardware>:
     424:	b5f0      	push	{r4, r5, r6, r7, lr}
     426:	4b2c      	ldr	r3, [pc, #176]	; (4d8 <APP_vSetUpHardware+0xb4>)
     428:	4a2c      	ldr	r2, [pc, #176]	; (4dc <APP_vSetUpHardware+0xb8>)
     42a:	601a      	str	r2, [r3, #0]
     42c:	f240 1209 	movw	r2, #265	; 0x109
     430:	b087      	sub	sp, #28
     432:	605a      	str	r2, [r3, #4]
     434:	4604      	mov	r4, r0
     436:	f002 f8c7 	bl	25c8 <BOARD_InitHardware>
     43a:	4621      	mov	r1, r4
     43c:	4828      	ldr	r0, [pc, #160]	; (4e0 <APP_vSetUpHardware+0xbc>)
     43e:	4d29      	ldr	r5, [pc, #164]	; (4e4 <APP_vSetUpHardware+0xc0>)
     440:	f001 ffbc 	bl	23bc <DbgConsole_Printf>
     444:	220a      	movs	r2, #10
     446:	2100      	movs	r1, #0
     448:	4b27      	ldr	r3, [pc, #156]	; (4e8 <APP_vSetUpHardware+0xc4>)
     44a:	4828      	ldr	r0, [pc, #160]	; (4ec <APP_vSetUpHardware+0xc8>)
     44c:	f001 ffd6 	bl	23fc <GPIO_PinInit>
     450:	2016      	movs	r0, #22
     452:	f003 fa83 	bl	395c <CLOCK_GetFreq>
     456:	2701      	movs	r7, #1
     458:	0886      	lsrs	r6, r0, #2
     45a:	602f      	str	r7, [r5, #0]
     45c:	a801      	add	r0, sp, #4
     45e:	f002 ffcd 	bl	33fc <WWDT_GetDefaultConfig>
     462:	f44f 7300 	mov.w	r3, #512	; 0x200
     466:	2016      	movs	r0, #22
     468:	9304      	str	r3, [sp, #16]
     46a:	9603      	str	r6, [sp, #12]
     46c:	9602      	str	r6, [sp, #8]
     46e:	f88d 7005 	strb.w	r7, [sp, #5]
     472:	f003 fa73 	bl	395c <CLOCK_GetFreq>
     476:	a901      	add	r1, sp, #4
     478:	9005      	str	r0, [sp, #20]
     47a:	481d      	ldr	r0, [pc, #116]	; (4f0 <APP_vSetUpHardware+0xcc>)
     47c:	f002 ffdc 	bl	3438 <WWDT_Init>
     480:	481b      	ldr	r0, [pc, #108]	; (4f0 <APP_vSetUpHardware+0xcc>)
     482:	f003 f841 	bl	3508 <WWDT_Refresh>
     486:	481b      	ldr	r0, [pc, #108]	; (4f4 <APP_vSetUpHardware+0xd0>)
     488:	f06f 037f 	mvn.w	r3, #127	; 0x7f
     48c:	21a0      	movs	r1, #160	; 0xa0
     48e:	2b00      	cmp	r3, #0
     490:	bfbb      	ittet	lt
     492:	f003 020f 	andlt.w	r2, r3, #15
     496:	3a04      	sublt	r2, #4
     498:	18ea      	addge	r2, r5, r3
     49a:	1812      	addlt	r2, r2, r0
     49c:	f103 0301 	add.w	r3, r3, #1
     4a0:	bfac      	ite	ge
     4a2:	f882 1300 	strbge.w	r1, [r2, #768]	; 0x300
     4a6:	7611      	strblt	r1, [r2, #24]
     4a8:	2b36      	cmp	r3, #54	; 0x36
     4aa:	d1f0      	bne.n	48e <APP_vSetUpHardware+0x6a>
     4ac:	4b0d      	ldr	r3, [pc, #52]	; (4e4 <APP_vSetUpHardware+0xc0>)
     4ae:	2220      	movs	r2, #32
     4b0:	f883 2300 	strb.w	r2, [r3, #768]	; 0x300
     4b4:	f04f 4380 	mov.w	r3, #1073741824	; 0x40000000
     4b8:	2203      	movs	r2, #3
     4ba:	f8c3 2280 	str.w	r2, [r3, #640]	; 0x280
     4be:	f002 fecf 	bl	3260 <SystemCoreClockUpdate>
     4c2:	f007 fc7b 	bl	7dbc <OSA_TimeInit>
     4c6:	f001 fe73 	bl	21b0 <APP_vInitLeds>
     4ca:	4621      	mov	r1, r4
     4cc:	480a      	ldr	r0, [pc, #40]	; (4f8 <APP_vSetUpHardware+0xd4>)
     4ce:	f001 ff75 	bl	23bc <DbgConsole_Printf>
     4d2:	b007      	add	sp, #28
     4d4:	bdf0      	pop	{r4, r5, r6, r7, pc}
     4d6:	bf00      	nop
     4d8:	40001000 	.word	0x40001000
     4dc:	e000f733 	.word	0xe000f733
     4e0:	000273fe 	.word	0x000273fe
     4e4:	e000e100 	.word	0xe000e100
     4e8:	04012410 	.word	0x04012410
     4ec:	40080000 	.word	0x40080000
     4f0:	4000a000 	.word	0x4000a000
     4f4:	e000ed00 	.word	0xe000ed00
     4f8:	00027423 	.word	0x00027423

000004fc <APP_vInitResources>:
     4fc:	b510      	push	{r4, lr}
     4fe:	2108      	movs	r1, #8
     500:	4829      	ldr	r0, [pc, #164]	; (5a8 <APP_vInitResources+0xac>)
     502:	f002 fc43 	bl	2d8c <ZTIMER_eInit>
     506:	4929      	ldr	r1, [pc, #164]	; (5ac <APP_vInitResources+0xb0>)
     508:	4829      	ldr	r0, [pc, #164]	; (5b0 <APP_vInitResources+0xb4>)
     50a:	2301      	movs	r3, #1
     50c:	2200      	movs	r2, #0
     50e:	f002 fca7 	bl	2e60 <ZTIMER_eOpen>
     512:	2200      	movs	r2, #0
     514:	4611      	mov	r1, r2
     516:	2301      	movs	r3, #1
     518:	4826      	ldr	r0, [pc, #152]	; (5b4 <APP_vInitResources+0xb8>)
     51a:	f002 fca1 	bl	2e60 <ZTIMER_eOpen>
     51e:	4926      	ldr	r1, [pc, #152]	; (5b8 <APP_vInitResources+0xbc>)
     520:	4826      	ldr	r0, [pc, #152]	; (5bc <APP_vInitResources+0xc0>)
     522:	2301      	movs	r3, #1
     524:	2200      	movs	r2, #0
     526:	f002 fc9b 	bl	2e60 <ZTIMER_eOpen>
     52a:	4925      	ldr	r1, [pc, #148]	; (5c0 <APP_vInitResources+0xc4>)
     52c:	4825      	ldr	r0, [pc, #148]	; (5c4 <APP_vInitResources+0xc8>)
     52e:	2301      	movs	r3, #1
     530:	2200      	movs	r2, #0
     532:	f002 fc95 	bl	2e60 <ZTIMER_eOpen>
     536:	4924      	ldr	r1, [pc, #144]	; (5c8 <APP_vInitResources+0xcc>)
     538:	4824      	ldr	r0, [pc, #144]	; (5cc <APP_vInitResources+0xd0>)
     53a:	2301      	movs	r3, #1
     53c:	2200      	movs	r2, #0
     53e:	f002 fc8f 	bl	2e60 <ZTIMER_eOpen>
     542:	4823      	ldr	r0, [pc, #140]	; (5d0 <APP_vInitResources+0xd4>)
     544:	2300      	movs	r3, #0
     546:	2240      	movs	r2, #64	; 0x40
     548:	2102      	movs	r1, #2
     54a:	f002 fbd1 	bl	2cf0 <ZQ_vQueueCreate>
     54e:	4821      	ldr	r0, [pc, #132]	; (5d4 <APP_vInitResources+0xd8>)
     550:	2300      	movs	r3, #0
     552:	2238      	movs	r2, #56	; 0x38
     554:	2101      	movs	r1, #1
     556:	f002 fbcb 	bl	2cf0 <ZQ_vQueueCreate>
     55a:	481f      	ldr	r0, [pc, #124]	; (5d8 <APP_vInitResources+0xdc>)
     55c:	2300      	movs	r3, #0
     55e:	2238      	movs	r2, #56	; 0x38
     560:	2101      	movs	r1, #1
     562:	f002 fbc5 	bl	2cf0 <ZQ_vQueueCreate>
     566:	481d      	ldr	r0, [pc, #116]	; (5dc <APP_vInitResources+0xe0>)
     568:	2300      	movs	r3, #0
     56a:	220c      	movs	r2, #12
     56c:	2104      	movs	r1, #4
     56e:	f002 fbbf 	bl	2cf0 <ZQ_vQueueCreate>
     572:	481b      	ldr	r0, [pc, #108]	; (5e0 <APP_vInitResources+0xe4>)
     574:	2300      	movs	r3, #0
     576:	222c      	movs	r2, #44	; 0x2c
     578:	2104      	movs	r1, #4
     57a:	f002 fbb9 	bl	2cf0 <ZQ_vQueueCreate>
     57e:	4819      	ldr	r0, [pc, #100]	; (5e4 <APP_vInitResources+0xe8>)
     580:	2300      	movs	r3, #0
     582:	222c      	movs	r2, #44	; 0x2c
     584:	2102      	movs	r1, #2
     586:	f002 fbb3 	bl	2cf0 <ZQ_vQueueCreate>
     58a:	4817      	ldr	r0, [pc, #92]	; (5e8 <APP_vInitResources+0xec>)
     58c:	2300      	movs	r3, #0
     58e:	2208      	movs	r2, #8
     590:	2104      	movs	r1, #4
     592:	f002 fbad 	bl	2cf0 <ZQ_vQueueCreate>
     596:	e8bd 4010 	ldmia.w	sp!, {r4, lr}
     59a:	4814      	ldr	r0, [pc, #80]	; (5ec <APP_vInitResources+0xf0>)
     59c:	2300      	movs	r3, #0
     59e:	220c      	movs	r2, #12
     5a0:	2108      	movs	r1, #8
     5a2:	f002 bba5 	b.w	2cf0 <ZQ_vQueueCreate>
     5a6:	bf00      	nop
     5a8:	04012a94 	.word	0x04012a94
     5ac:	00001819 	.word	0x00001819
     5b0:	04012b16 	.word	0x04012b16
     5b4:	04012b17 	.word	0x04012b17
     5b8:	00001e0d 	.word	0x00001e0d
     5bc:	04012b18 	.word	0x04012b18
     5c0:	00001729 	.word	0x00001729
     5c4:	04012b19 	.word	0x04012b19
     5c8:	000021f1 	.word	0x000021f1
     5cc:	04012b15 	.word	0x04012b15
     5d0:	04012a64 	.word	0x04012a64
     5d4:	04012a84 	.word	0x04012a84
     5d8:	04012a74 	.word	0x04012a74
     5dc:	04012a54 	.word	0x04012a54
     5e0:	040142f4 	.word	0x040142f4
     5e4:	040142e4 	.word	0x040142e4
     5e8:	040142d4 	.word	0x040142d4
     5ec:	040142c4 	.word	0x040142c4

000005f0 <APP_vGetVoltageBattery>:
     5f0:	b510      	push	{r4, lr}
     5f2:	f002 fa51 	bl	2a98 <Get_BattVolt>
     5f6:	4601      	mov	r1, r0
     5f8:	4604      	mov	r4, r0
     5fa:	4805      	ldr	r0, [pc, #20]	; (610 <APP_vGetVoltageBattery+0x20>)
     5fc:	f001 fede 	bl	23bc <DbgConsole_Printf>
     600:	4b04      	ldr	r3, [pc, #16]	; (614 <APP_vGetVoltageBattery+0x24>)
     602:	2164      	movs	r1, #100	; 0x64
     604:	fbb4 f4f1 	udiv	r4, r4, r1
     608:	f883 4368 	strb.w	r4, [r3, #872]	; 0x368
     60c:	bd10      	pop	{r4, pc}
     60e:	bf00      	nop
     610:	00027447 	.word	0x00027447
     614:	04014350 	.word	0x04014350

00000618 <APP_vRadioTempUpdate>:
     618:	b51f      	push	{r0, r1, r2, r3, r4, lr}
     61a:	4604      	mov	r4, r0
     61c:	f007 fbe6 	bl	7dec <OSA_TimeGetMsec>
     620:	4622      	mov	r2, r4
     622:	4601      	mov	r1, r0
     624:	4823      	ldr	r0, [pc, #140]	; (6b4 <APP_vRadioTempUpdate+0x9c>)
     626:	f001 fec9 	bl	23bc <DbgConsole_Printf>
     62a:	bb9c      	cbnz	r4, 694 <APP_vRadioTempUpdate+0x7c>
     62c:	f007 fbde 	bl	7dec <OSA_TimeGetMsec>
     630:	4601      	mov	r1, r0
     632:	4821      	ldr	r0, [pc, #132]	; (6b8 <APP_vRadioTempUpdate+0xa0>)
     634:	f001 fec2 	bl	23bc <DbgConsole_Printf>
     638:	ab03      	add	r3, sp, #12
     63a:	9300      	str	r3, [sp, #0]
     63c:	2107      	movs	r1, #7
     63e:	481f      	ldr	r0, [pc, #124]	; (6bc <APP_vRadioTempUpdate+0xa4>)
     640:	2308      	movs	r3, #8
     642:	f44f 7296 	mov.w	r2, #300	; 0x12c
     646:	f002 f96f 	bl	2928 <get_temperature>
     64a:	4604      	mov	r4, r0
     64c:	4601      	mov	r1, r0
     64e:	481c      	ldr	r0, [pc, #112]	; (6c0 <APP_vRadioTempUpdate+0xa8>)
     650:	f001 feb4 	bl	23bc <DbgConsole_Printf>
     654:	b35c      	cbz	r4, 6ae <APP_vRadioTempUpdate+0x96>
     656:	9903      	ldr	r1, [sp, #12]
     658:	481a      	ldr	r0, [pc, #104]	; (6c4 <APP_vRadioTempUpdate+0xac>)
     65a:	2900      	cmp	r1, #0
     65c:	f04f 0364 	mov.w	r3, #100	; 0x64
     660:	460c      	mov	r4, r1
     662:	bfb8      	it	lt
     664:	f101 043f 	addlt.w	r4, r1, #63	; 0x3f
     668:	434b      	muls	r3, r1
     66a:	bf48      	it	mi
     66c:	337f      	addmi	r3, #127	; 0x7f
     66e:	f344 148f 	sbfx	r4, r4, #6, #16
     672:	11db      	asrs	r3, r3, #7
     674:	4622      	mov	r2, r4
     676:	f001 fea1 	bl	23bc <DbgConsole_Printf>
     67a:	4620      	mov	r0, r4
     67c:	f025 fa22 	bl	25ac4 <vRadio_Temp_Update>
     680:	9a03      	ldr	r2, [sp, #12]
     682:	2364      	movs	r3, #100	; 0x64
     684:	4353      	muls	r3, r2
     686:	bf48      	it	mi
     688:	337f      	addmi	r3, #127	; 0x7f
     68a:	4a0f      	ldr	r2, [pc, #60]	; (6c8 <APP_vRadioTempUpdate+0xb0>)
     68c:	11db      	asrs	r3, r3, #7
     68e:	f8a2 3378 	strh.w	r3, [r2, #888]	; 0x378
     692:	e00c      	b.n	6ae <APP_vRadioTempUpdate+0x96>
     694:	4809      	ldr	r0, [pc, #36]	; (6bc <APP_vRadioTempUpdate+0xa4>)
     696:	f002 f905 	bl	28a4 <load_calibration_param_from_flash>
     69a:	4604      	mov	r4, r0
     69c:	f007 fba6 	bl	7dec <OSA_TimeGetMsec>
     6a0:	4622      	mov	r2, r4
     6a2:	4601      	mov	r1, r0
     6a4:	4809      	ldr	r0, [pc, #36]	; (6cc <APP_vRadioTempUpdate+0xb4>)
     6a6:	f001 fe89 	bl	23bc <DbgConsole_Printf>
     6aa:	2c00      	cmp	r4, #0
     6ac:	d1be      	bne.n	62c <APP_vRadioTempUpdate+0x14>
     6ae:	b004      	add	sp, #16
     6b0:	bd10      	pop	{r4, pc}
     6b2:	bf00      	nop
     6b4:	00027463 	.word	0x00027463
     6b8:	00027482 	.word	0x00027482
     6bc:	40089000 	.word	0x40089000
     6c0:	00028cee 	.word	0x00028cee
     6c4:	000274cc 	.word	0x000274cc
     6c8:	04014350 	.word	0x04014350
     6cc:	0002749d 	.word	0x0002749d

000006d0 <bRadioCB_WriteNVM>:
     6d0:	b573      	push	{r0, r1, r4, r5, r6, lr}
     6d2:	460a      	mov	r2, r1
     6d4:	460d      	mov	r5, r1
     6d6:	4601      	mov	r1, r0
     6d8:	f44f 407f 	mov.w	r0, #65280	; 0xff00
     6dc:	f00f fba6 	bl	fe2c <PDM_eSaveRecordData>
     6e0:	4606      	mov	r6, r0
     6e2:	fab0 f480 	clz	r4, r0
     6e6:	f007 fb81 	bl	7dec <OSA_TimeGetMsec>
     6ea:	0964      	lsrs	r4, r4, #5
     6ec:	4601      	mov	r1, r0
     6ee:	9600      	str	r6, [sp, #0]
     6f0:	4623      	mov	r3, r4
     6f2:	462a      	mov	r2, r5
     6f4:	4802      	ldr	r0, [pc, #8]	; (700 <bRadioCB_WriteNVM+0x30>)
     6f6:	f001 fe61 	bl	23bc <DbgConsole_Printf>
     6fa:	4620      	mov	r0, r4
     6fc:	b002      	add	sp, #8
     6fe:	bd70      	pop	{r4, r5, r6, pc}
     700:	00027508 	.word	0x00027508

00000704 <u16RadioCB_ReadNVM>:
     704:	b530      	push	{r4, r5, lr}
     706:	b085      	sub	sp, #20
     708:	2300      	movs	r3, #0
     70a:	460a      	mov	r2, r1
     70c:	460c      	mov	r4, r1
     70e:	f8ad 300e 	strh.w	r3, [sp, #14]
     712:	4601      	mov	r1, r0
     714:	f10d 030e 	add.w	r3, sp, #14
     718:	f44f 407f 	mov.w	r0, #65280	; 0xff00
     71c:	f00d fe86 	bl	e42c <PDM_eReadDataFromRecord>
     720:	4605      	mov	r5, r0
     722:	f007 fb63 	bl	7dec <OSA_TimeGetMsec>
     726:	f8bd 300e 	ldrh.w	r3, [sp, #14]
     72a:	9500      	str	r5, [sp, #0]
     72c:	4601      	mov	r1, r0
     72e:	4622      	mov	r2, r4
     730:	4803      	ldr	r0, [pc, #12]	; (740 <u16RadioCB_ReadNVM+0x3c>)
     732:	f001 fe43 	bl	23bc <DbgConsole_Printf>
     736:	f8bd 000e 	ldrh.w	r0, [sp, #14]
     73a:	b005      	add	sp, #20
     73c:	bd30      	pop	{r4, r5, pc}
     73e:	bf00      	nop
     740:	00027537 	.word	0x00027537

00000744 <ZPS_u8GrabMutexLock>:
     744:	b538      	push	{r3, r4, r5, lr}
     746:	460d      	mov	r5, r1
     748:	4604      	mov	r4, r0
     74a:	b128      	cbz	r0, 758 <ZPS_u8GrabMutexLock+0x14>
     74c:	4780      	blx	r0
     74e:	7803      	ldrb	r3, [r0, #0]
     750:	b113      	cbz	r3, 758 <ZPS_u8GrabMutexLock+0x14>
     752:	4b07      	ldr	r3, [pc, #28]	; (770 <ZPS_u8GrabMutexLock+0x2c>)
     754:	2201      	movs	r2, #1
     756:	601a      	str	r2, [r3, #0]
     758:	4628      	mov	r0, r5
     75a:	f007 fb57 	bl	7e0c <OSA_InterruptEnableRestricted>
     75e:	b114      	cbz	r4, 766 <ZPS_u8GrabMutexLock+0x22>
     760:	47a0      	blx	r4
     762:	2301      	movs	r3, #1
     764:	7003      	strb	r3, [r0, #0]
     766:	4628      	mov	r0, r5
     768:	f007 fb5d 	bl	7e26 <OSA_InterruptEnableRestore>
     76c:	2000      	movs	r0, #0
     76e:	bd38      	pop	{r3, r4, r5, pc}
     770:	badadd04 	.word	0xbadadd04

00000774 <ZPS_u8ReleaseMutexLock>:
     774:	b538      	push	{r3, r4, r5, lr}
     776:	4605      	mov	r5, r0
     778:	4608      	mov	r0, r1
     77a:	460c      	mov	r4, r1
     77c:	f007 fb46 	bl	7e0c <OSA_InterruptEnableRestricted>
     780:	b115      	cbz	r5, 788 <ZPS_u8ReleaseMutexLock+0x14>
     782:	47a8      	blx	r5
     784:	2300      	movs	r3, #0
     786:	7003      	strb	r3, [r0, #0]
     788:	4620      	mov	r0, r4
     78a:	f007 fb4c 	bl	7e26 <OSA_InterruptEnableRestore>
     78e:	2000      	movs	r0, #0
     790:	bd38      	pop	{r3, r4, r5, pc}
     792:	Address 0x00000792 is out of bounds.


00000794 <ZPS_eEnterCriticalSection>:
     794:	b538      	push	{r3, r4, r5, lr}
     796:	460d      	mov	r5, r1
     798:	4604      	mov	r4, r0
     79a:	b128      	cbz	r0, 7a8 <ZPS_eEnterCriticalSection+0x14>
     79c:	4780      	blx	r0
     79e:	7803      	ldrb	r3, [r0, #0]
     7a0:	b113      	cbz	r3, 7a8 <ZPS_eEnterCriticalSection+0x14>
     7a2:	4b06      	ldr	r3, [pc, #24]	; (7bc <ZPS_eEnterCriticalSection+0x28>)
     7a4:	2201      	movs	r2, #1
     7a6:	601a      	str	r2, [r3, #0]
     7a8:	4628      	mov	r0, r5
     7aa:	f007 fb2f 	bl	7e0c <OSA_InterruptEnableRestricted>
     7ae:	b114      	cbz	r4, 7b6 <ZPS_eEnterCriticalSection+0x22>
     7b0:	47a0      	blx	r4
     7b2:	2301      	movs	r3, #1
     7b4:	7003      	strb	r3, [r0, #0]
     7b6:	2000      	movs	r0, #0
     7b8:	bd38      	pop	{r3, r4, r5, pc}
     7ba:	bf00      	nop
     7bc:	badadd08 	.word	0xbadadd08

000007c0 <ZPS_eExitCriticalSection>:
     7c0:	b510      	push	{r4, lr}
     7c2:	460c      	mov	r4, r1
     7c4:	b110      	cbz	r0, 7cc <ZPS_eExitCriticalSection+0xc>
     7c6:	4780      	blx	r0
     7c8:	2300      	movs	r3, #0
     7ca:	7003      	strb	r3, [r0, #0]
     7cc:	4620      	mov	r0, r4
     7ce:	f007 fb2a 	bl	7e26 <OSA_InterruptEnableRestore>
     7d2:	2000      	movs	r0, #0
     7d4:	bd10      	pop	{r4, pc}
     7d6:	Address 0x000007d6 is out of bounds.


000007d8 <PDUM_vInit>:
     7d8:	b510      	push	{r4, lr}
     7da:	4c07      	ldr	r4, [pc, #28]	; (7f8 <PDUM_vInit+0x20>)
     7dc:	4807      	ldr	r0, [pc, #28]	; (7fc <PDUM_vInit+0x24>)
     7de:	2300      	movs	r3, #0
     7e0:	2109      	movs	r1, #9
     7e2:	80a3      	strh	r3, [r4, #4]
     7e4:	8223      	strh	r3, [r4, #16]
     7e6:	f00d f8f5 	bl	d9d4 <pdum_vNPduInit>
     7ea:	4620      	mov	r0, r4
     7ec:	2102      	movs	r1, #2
     7ee:	e8bd 4010 	ldmia.w	sp!, {r4, lr}
     7f2:	f00d ba15 	b.w	dc20 <pdum_vAPduInit>
     7f6:	bf00      	nop
     7f8:	04012490 	.word	0x04012490
     7fc:	04012b1c 	.word	0x04012b1c

00000800 <zps_vGetZpsMutex>:
     800:	4800      	ldr	r0, [pc, #0]	; (804 <zps_vGetZpsMutex+0x4>)
     802:	4770      	bx	lr
     804:	04013370 	.word	0x04013370

00000808 <vZdoServersInit>:
     808:	b510      	push	{r4, lr}
     80a:	4c24      	ldr	r4, [pc, #144]	; (89c <vZdoServersInit+0x94>)
     80c:	4824      	ldr	r0, [pc, #144]	; (8a0 <vZdoServersInit+0x98>)
     80e:	4621      	mov	r1, r4
     810:	f015 fdc8 	bl	163a4 <zps_vAplZdoDefaultServerInit>
     814:	4621      	mov	r1, r4
     816:	4823      	ldr	r0, [pc, #140]	; (8a4 <vZdoServersInit+0x9c>)
     818:	f018 faf4 	bl	18e04 <zps_vAplZdoZdoClientInit>
     81c:	4822      	ldr	r0, [pc, #136]	; (8a8 <vZdoServersInit+0xa0>)
     81e:	f016 fdf1 	bl	17404 <zps_vAplZdoDeviceAnnceServerInit>
     822:	4621      	mov	r1, r4
     824:	4821      	ldr	r0, [pc, #132]	; (8ac <vZdoServersInit+0xa4>)
     826:	f016 fd7d 	bl	17324 <zps_vAplZdoActiveEpServerInit>
     82a:	4621      	mov	r1, r4
     82c:	4820      	ldr	r0, [pc, #128]	; (8b0 <vZdoServersInit+0xa8>)
     82e:	f016 f83a 	bl	168a6 <zps_vAplZdoNwkAddrServerInit>
     832:	4621      	mov	r1, r4
     834:	481f      	ldr	r0, [pc, #124]	; (8b4 <vZdoServersInit+0xac>)
     836:	f016 f90f 	bl	16a58 <zps_vAplZdoIeeeAddrServerInit>
     83a:	4621      	mov	r1, r4
     83c:	481e      	ldr	r0, [pc, #120]	; (8b8 <vZdoServersInit+0xb0>)
     83e:	f016 feb9 	bl	175b4 <zps_vAplZdoSystemServerDiscoveryServerInit>
     842:	4621      	mov	r1, r4
     844:	481d      	ldr	r0, [pc, #116]	; (8bc <vZdoServersInit+0xb4>)
     846:	f016 fb45 	bl	16ed4 <zps_vAplZdoNodeDescServerInit>
     84a:	4621      	mov	r1, r4
     84c:	481c      	ldr	r0, [pc, #112]	; (8c0 <vZdoServersInit+0xb8>)
     84e:	f016 fcef 	bl	17230 <zps_vAplZdoPowerDescServerInit>
     852:	4621      	mov	r1, r4
     854:	481b      	ldr	r0, [pc, #108]	; (8c4 <vZdoServersInit+0xbc>)
     856:	f016 f9cb 	bl	16bf0 <zps_vAplZdoMatchDescServerInit>
     85a:	4621      	mov	r1, r4
     85c:	481a      	ldr	r0, [pc, #104]	; (8c8 <vZdoServersInit+0xc0>)
     85e:	f016 fbd9 	bl	17014 <zps_vAplZdoSimpleDescServerInit>
     862:	4621      	mov	r1, r4
     864:	4819      	ldr	r0, [pc, #100]	; (8cc <vZdoServersInit+0xc4>)
     866:	f016 feeb 	bl	17640 <zps_vAplZdoMgmtLqiServerInit>
     86a:	4621      	mov	r1, r4
     86c:	4818      	ldr	r0, [pc, #96]	; (8d0 <vZdoServersInit+0xc8>)
     86e:	f017 f80d 	bl	1788c <zps_vAplZdoMgmtLeaveServerInit>
     872:	4a18      	ldr	r2, [pc, #96]	; (8d4 <vZdoServersInit+0xcc>)
     874:	4818      	ldr	r0, [pc, #96]	; (8d8 <vZdoServersInit+0xd0>)
     876:	4621      	mov	r1, r4
     878:	f017 f960 	bl	17b3c <zps_vAplZdoMgmtNWKUpdateServerInit>
     87c:	4621      	mov	r1, r4
     87e:	4817      	ldr	r0, [pc, #92]	; (8dc <vZdoServersInit+0xd4>)
     880:	f017 fc49 	bl	18116 <zps_vAplZdoBindUnbindServerInit>
     884:	4816      	ldr	r0, [pc, #88]	; (8e0 <vZdoServersInit+0xd8>)
     886:	4b17      	ldr	r3, [pc, #92]	; (8e4 <vZdoServersInit+0xdc>)
     888:	2101      	movs	r1, #1
     88a:	220a      	movs	r2, #10
     88c:	f017 feee 	bl	1866c <zps_vAplZdoBindRequestServerInit>
     890:	4621      	mov	r1, r4
     892:	4815      	ldr	r0, [pc, #84]	; (8e8 <vZdoServersInit+0xe0>)
     894:	e8bd 4010 	ldmia.w	sp!, {r4, lr}
     898:	f018 bb3e 	b.w	18f18 <zps_vAplZdoMgmtBindServerInit>
     89c:	04012490 	.word	0x04012490
     8a0:	04013a1c 	.word	0x04013a1c
     8a4:	040142bc 	.word	0x040142bc
     8a8:	04013a20 	.word	0x04013a20
     8ac:	0401393c 	.word	0x0401393c
     8b0:	04013ab4 	.word	0x04013ab4
     8b4:	04013a20 	.word	0x04013a20
     8b8:	040142b8 	.word	0x040142b8
     8bc:	04013ab0 	.word	0x04013ab0
     8c0:	040142b0 	.word	0x040142b0
     8c4:	04013a24 	.word	0x04013a24
     8c8:	040142b4 	.word	0x040142b4
     8cc:	04013a54 	.word	0x04013a54
     8d0:	04013a2c 	.word	0x04013a2c
     8d4:	040125c4 	.word	0x040125c4
     8d8:	04013a58 	.word	0x04013a58
     8dc:	040139ec 	.word	0x040139ec
     8e0:	04013998 	.word	0x04013998
     8e4:	04013978 	.word	0x04013978
     8e8:	04013a28 	.word	0x04013a28

000008ec <ZPS_pvAplZdoGetAplHandle>:
     8ec:	4b01      	ldr	r3, [pc, #4]	; (8f4 <ZPS_pvAplZdoGetAplHandle+0x8>)
     8ee:	6818      	ldr	r0, [r3, #0]
     8f0:	4770      	bx	lr
     8f2:	bf00      	nop
     8f4:	04012834 	.word	0x04012834

000008f8 <ZPS_u32ApsFcSaveCountBitShift>:
     8f8:	200a      	movs	r0, #10
     8fa:	4770      	bx	lr

000008fc <ZPS_psAplDefaultDistributedAPSLinkKey>:
     8fc:	4800      	ldr	r0, [pc, #0]	; (900 <ZPS_psAplDefaultDistributedAPSLinkKey+0x4>)
     8fe:	4770      	bx	lr
     900:	04012500 	.word	0x04012500

00000904 <ZPS_psAplDefaultGlobalAPSLinkKey>:
     904:	4800      	ldr	r0, [pc, #0]	; (908 <ZPS_psAplDefaultGlobalAPSLinkKey+0x4>)
     906:	4770      	bx	lr
     908:	04012504 	.word	0x04012504

0000090c <ZPS_ps_groupPdmTable>:
     90c:	4800      	ldr	r0, [pc, #0]	; (910 <ZPS_ps_groupPdmTable+0x4>)
     90e:	4770      	bx	lr
     910:	04013934 	.word	0x04013934

00000914 <ZPS_pu8MaxZpsConfigEp>:
     914:	4800      	ldr	r0, [pc, #0]	; (918 <ZPS_pu8MaxZpsConfigEp+0x4>)
     916:	4770      	bx	lr
     918:	04012830 	.word	0x04012830

0000091c <ZPS_pau8EpMapPresent>:
     91c:	4800      	ldr	r0, [pc, #0]	; (920 <ZPS_pau8EpMapPresent+0x4>)
     91e:	4770      	bx	lr
     920:	040124a8 	.word	0x040124a8

00000924 <ZPS_u8ConfigStackProfileId>:
     924:	4b01      	ldr	r3, [pc, #4]	; (92c <ZPS_u8ConfigStackProfileId+0x8>)
     926:	7818      	ldrb	r0, [r3, #0]
     928:	4770      	bx	lr
     92a:	bf00      	nop
     92c:	04012831 	.word	0x04012831

00000930 <ZPS_u32NwkFcSaveCountBitShift>:
     930:	200a      	movs	r0, #10
     932:	4770      	bx	lr

00000934 <ZPS_psMacIFTGetTable>:
     934:	4800      	ldr	r0, [pc, #0]	; (938 <ZPS_psMacIFTGetTable+0x4>)
     936:	4770      	bx	lr
     938:	040124ac 	.word	0x040124ac

0000093c <ZPS_psMacIFTGetInterface>:
     93c:	4b04      	ldr	r3, [pc, #16]	; (950 <ZPS_psMacIFTGetInterface+0x14>)
     93e:	f893 2040 	ldrb.w	r2, [r3, #64]	; 0x40
     942:	4282      	cmp	r2, r0
     944:	bf86      	itte	hi
     946:	685b      	ldrhi	r3, [r3, #4]
     948:	eb03 0080 	addhi.w	r0, r3, r0, lsl #2
     94c:	2000      	movls	r0, #0
     94e:	4770      	bx	lr
     950:	040124ac 	.word	0x040124ac

00000954 <ZPS_vGetGpContext>:
     954:	4b01      	ldr	r3, [pc, #4]	; (95c <ZPS_vGetGpContext+0x8>)
     956:	6818      	ldr	r0, [r3, #0]
     958:	4770      	bx	lr
     95a:	bf00      	nop
     95c:	04013374 	.word	0x04013374

00000960 <ZPS_vGetOptionalFeatures>:
     960:	4770      	bx	lr
     962:	Address 0x00000962 is out of bounds.


00000964 <eRestoreReports>:
     964:	b513      	push	{r0, r1, r4, lr}
     966:	2240      	movs	r2, #64	; 0x40
     968:	f10d 0306 	add.w	r3, sp, #6
     96c:	4905      	ldr	r1, [pc, #20]	; (984 <eRestoreReports+0x20>)
     96e:	200b      	movs	r0, #11
     970:	f00d fd5c 	bl	e42c <PDM_eReadDataFromRecord>
     974:	4604      	mov	r4, r0
     976:	4601      	mov	r1, r0
     978:	4803      	ldr	r0, [pc, #12]	; (988 <eRestoreReports+0x24>)
     97a:	f001 fd1f 	bl	23bc <DbgConsole_Printf>
     97e:	4620      	mov	r0, r4
     980:	b002      	add	sp, #8
     982:	bd10      	pop	{r4, pc}
     984:	04014308 	.word	0x04014308
     988:	00027924 	.word	0x00027924

0000098c <vMakeSupportedAttributesReportable>:
     98c:	b5f0      	push	{r4, r5, r6, r7, lr}
     98e:	4c1e      	ldr	r4, [pc, #120]	; (a08 <vMakeSupportedAttributesReportable+0x7c>)
     990:	481e      	ldr	r0, [pc, #120]	; (a0c <vMakeSupportedAttributesReportable+0x80>)
     992:	4f1f      	ldr	r7, [pc, #124]	; (a10 <vMakeSupportedAttributesReportable+0x84>)
     994:	b085      	sub	sp, #20
     996:	f001 fd11 	bl	23bc <DbgConsole_Printf>
     99a:	f994 3018 	ldrsb.w	r3, [r4, #24]
     99e:	8826      	ldrh	r6, [r4, #0]
     9a0:	9303      	str	r3, [sp, #12]
     9a2:	7a23      	ldrb	r3, [r4, #8]
     9a4:	9302      	str	r3, [sp, #8]
     9a6:	8a23      	ldrh	r3, [r4, #16]
     9a8:	9301      	str	r3, [sp, #4]
     9aa:	89e3      	ldrh	r3, [r4, #14]
     9ac:	9300      	str	r3, [sp, #0]
     9ae:	89a3      	ldrh	r3, [r4, #12]
     9b0:	8962      	ldrh	r2, [r4, #10]
     9b2:	4631      	mov	r1, r6
     9b4:	4638      	mov	r0, r7
     9b6:	f001 fd01 	bl	23bc <DbgConsole_Printf>
     9ba:	4b16      	ldr	r3, [pc, #88]	; (a14 <vMakeSupportedAttributesReportable+0x88>)
     9bc:	781d      	ldrb	r5, [r3, #0]
     9be:	f104 0308 	add.w	r3, r4, #8
     9c2:	9300      	str	r3, [sp, #0]
     9c4:	4631      	mov	r1, r6
     9c6:	2301      	movs	r3, #1
     9c8:	2200      	movs	r2, #0
     9ca:	4628      	mov	r0, r5
     9cc:	f00a fc36 	bl	b23c <eZCL_CreateLocalReport>
     9d0:	f994 3038 	ldrsb.w	r3, [r4, #56]	; 0x38
     9d4:	8c26      	ldrh	r6, [r4, #32]
     9d6:	9303      	str	r3, [sp, #12]
     9d8:	f894 3028 	ldrb.w	r3, [r4, #40]	; 0x28
     9dc:	9302      	str	r3, [sp, #8]
     9de:	8e23      	ldrh	r3, [r4, #48]	; 0x30
     9e0:	9301      	str	r3, [sp, #4]
     9e2:	8de3      	ldrh	r3, [r4, #46]	; 0x2e
     9e4:	9300      	str	r3, [sp, #0]
     9e6:	8da3      	ldrh	r3, [r4, #44]	; 0x2c
     9e8:	8d62      	ldrh	r2, [r4, #42]	; 0x2a
     9ea:	4631      	mov	r1, r6
     9ec:	4638      	mov	r0, r7
     9ee:	3428      	adds	r4, #40	; 0x28
     9f0:	f001 fce4 	bl	23bc <DbgConsole_Printf>
     9f4:	9400      	str	r4, [sp, #0]
     9f6:	2301      	movs	r3, #1
     9f8:	2200      	movs	r2, #0
     9fa:	4631      	mov	r1, r6
     9fc:	4628      	mov	r0, r5
     9fe:	f00a fc1d 	bl	b23c <eZCL_CreateLocalReport>
     a02:	b005      	add	sp, #20
     a04:	bdf0      	pop	{r4, r5, r6, r7, pc}
     a06:	bf00      	nop
     a08:	04014308 	.word	0x04014308
     a0c:	00027943 	.word	0x00027943
     a10:	00027972 	.word	0x00027972
     a14:	00027e4b 	.word	0x00027e4b

00000a18 <vLoadDefaultConfigForReportable>:
     a18:	b570      	push	{r4, r5, r6, lr}
     a1a:	4d1c      	ldr	r5, [pc, #112]	; (a8c <vLoadDefaultConfigForReportable+0x74>)
     a1c:	481c      	ldr	r0, [pc, #112]	; (a90 <vLoadDefaultConfigForReportable+0x78>)
     a1e:	4c1c      	ldr	r4, [pc, #112]	; (a90 <vLoadDefaultConfigForReportable+0x78>)
     a20:	b086      	sub	sp, #24
     a22:	2240      	movs	r2, #64	; 0x40
     a24:	2100      	movs	r1, #0
     a26:	f026 fbed 	bl	27204 <memset>
     a2a:	cd0f      	ldmia	r5!, {r0, r1, r2, r3}
     a2c:	c40f      	stmia	r4!, {r0, r1, r2, r3}
     a2e:	e895 000f 	ldmia.w	r5, {r0, r1, r2, r3}
     a32:	3510      	adds	r5, #16
     a34:	e884 000f 	stmia.w	r4, {r0, r1, r2, r3}
     a38:	cd0f      	ldmia	r5!, {r0, r1, r2, r3}
     a3a:	f104 0610 	add.w	r6, r4, #16
     a3e:	c60f      	stmia	r6!, {r0, r1, r2, r3}
     a40:	e895 000f 	ldmia.w	r5, {r0, r1, r2, r3}
     a44:	e886 000f 	stmia.w	r6, {r0, r1, r2, r3}
     a48:	4812      	ldr	r0, [pc, #72]	; (a94 <vLoadDefaultConfigForReportable+0x7c>)
     a4a:	4e13      	ldr	r6, [pc, #76]	; (a98 <vLoadDefaultConfigForReportable+0x80>)
     a4c:	f001 fcb6 	bl	23bc <DbgConsole_Printf>
     a50:	3c10      	subs	r4, #16
     a52:	2500      	movs	r5, #0
     a54:	7e23      	ldrb	r3, [r4, #24]
     a56:	9304      	str	r3, [sp, #16]
     a58:	7a23      	ldrb	r3, [r4, #8]
     a5a:	9303      	str	r3, [sp, #12]
     a5c:	8a23      	ldrh	r3, [r4, #16]
     a5e:	9302      	str	r3, [sp, #8]
     a60:	89e3      	ldrh	r3, [r4, #14]
     a62:	9301      	str	r3, [sp, #4]
     a64:	89a3      	ldrh	r3, [r4, #12]
     a66:	9300      	str	r3, [sp, #0]
     a68:	8963      	ldrh	r3, [r4, #10]
     a6a:	7a62      	ldrb	r2, [r4, #9]
     a6c:	8821      	ldrh	r1, [r4, #0]
     a6e:	4630      	mov	r0, r6
     a70:	f001 fca4 	bl	23bc <DbgConsole_Printf>
     a74:	3420      	adds	r4, #32
     a76:	b13d      	cbz	r5, a88 <vLoadDefaultConfigForReportable+0x70>
     a78:	4905      	ldr	r1, [pc, #20]	; (a90 <vLoadDefaultConfigForReportable+0x78>)
     a7a:	2240      	movs	r2, #64	; 0x40
     a7c:	200b      	movs	r0, #11
     a7e:	b006      	add	sp, #24
     a80:	e8bd 4070 	ldmia.w	sp!, {r4, r5, r6, lr}
     a84:	f00f b9d2 	b.w	fe2c <PDM_eSaveRecordData>
     a88:	2501      	movs	r5, #1
     a8a:	e7e3      	b.n	a54 <vLoadDefaultConfigForReportable+0x3c>
     a8c:	04012838 	.word	0x04012838
     a90:	04014308 	.word	0x04014308
     a94:	000279ba 	.word	0x000279ba
     a98:	000279e6 	.word	0x000279e6

00000a9c <vSaveReportableRecord>:
     a9c:	b510      	push	{r4, lr}
     a9e:	4c12      	ldr	r4, [pc, #72]	; (ae8 <vSaveReportableRecord+0x4c>)
     aa0:	4623      	mov	r3, r4
     aa2:	b086      	sub	sp, #24
     aa4:	f823 0b08 	strh.w	r0, [r3], #8
     aa8:	2218      	movs	r2, #24
     aaa:	4618      	mov	r0, r3
     aac:	f026 fb10 	bl	270d0 <memcpy>
     ab0:	480e      	ldr	r0, [pc, #56]	; (aec <vSaveReportableRecord+0x50>)
     ab2:	f001 fc83 	bl	23bc <DbgConsole_Printf>
     ab6:	7e23      	ldrb	r3, [r4, #24]
     ab8:	9304      	str	r3, [sp, #16]
     aba:	7a23      	ldrb	r3, [r4, #8]
     abc:	9303      	str	r3, [sp, #12]
     abe:	8a23      	ldrh	r3, [r4, #16]
     ac0:	9302      	str	r3, [sp, #8]
     ac2:	89e3      	ldrh	r3, [r4, #14]
     ac4:	9301      	str	r3, [sp, #4]
     ac6:	89a3      	ldrh	r3, [r4, #12]
     ac8:	7a62      	ldrb	r2, [r4, #9]
     aca:	8821      	ldrh	r1, [r4, #0]
     acc:	9300      	str	r3, [sp, #0]
     ace:	4808      	ldr	r0, [pc, #32]	; (af0 <vSaveReportableRecord+0x54>)
     ad0:	8963      	ldrh	r3, [r4, #10]
     ad2:	f001 fc73 	bl	23bc <DbgConsole_Printf>
     ad6:	2240      	movs	r2, #64	; 0x40
     ad8:	4621      	mov	r1, r4
     ada:	200b      	movs	r0, #11
     adc:	b006      	add	sp, #24
     ade:	e8bd 4010 	ldmia.w	sp!, {r4, lr}
     ae2:	f00f b9a3 	b.w	fe2c <PDM_eSaveRecordData>
     ae6:	bf00      	nop
     ae8:	04014308 	.word	0x04014308
     aec:	00027a31 	.word	0x00027a31
     af0:	00027a53 	.word	0x00027a53

00000af4 <vSendImmediateIndexReport>:
     af4:	b530      	push	{r4, r5, lr}
     af6:	4814      	ldr	r0, [pc, #80]	; (b48 <vSendImmediateIndexReport+0x54>)
     af8:	b087      	sub	sp, #28
     afa:	f001 fc5f 	bl	23bc <DbgConsole_Printf>
     afe:	f009 f889 	bl	9c14 <hZCL_AllocateAPduInstance>
     b02:	4604      	mov	r4, r0
     b04:	b920      	cbnz	r0, b10 <vSendImmediateIndexReport+0x1c>
     b06:	4811      	ldr	r0, [pc, #68]	; (b4c <vSendImmediateIndexReport+0x58>)
     b08:	f001 fc58 	bl	23bc <DbgConsole_Printf>
     b0c:	b007      	add	sp, #28
     b0e:	bd30      	pop	{r4, r5, pc}
     b10:	230a      	movs	r3, #10
     b12:	f88d 3008 	strb.w	r3, [sp, #8]
     b16:	2301      	movs	r3, #1
     b18:	9001      	str	r0, [sp, #4]
     b1a:	f240 7102 	movw	r1, #1794	; 0x702
     b1e:	9300      	str	r3, [sp, #0]
     b20:	2200      	movs	r2, #0
     b22:	a802      	add	r0, sp, #8
     b24:	f008 f888 	bl	8c38 <eZCL_ReportAttribute>
     b28:	4605      	mov	r5, r0
     b2a:	4601      	mov	r1, r0
     b2c:	4808      	ldr	r0, [pc, #32]	; (b50 <vSendImmediateIndexReport+0x5c>)
     b2e:	f001 fc45 	bl	23bc <DbgConsole_Printf>
     b32:	b90d      	cbnz	r5, b38 <vSendImmediateIndexReport+0x44>
     b34:	4807      	ldr	r0, [pc, #28]	; (b54 <vSendImmediateIndexReport+0x60>)
     b36:	e7e7      	b.n	b08 <vSendImmediateIndexReport+0x14>
     b38:	4807      	ldr	r0, [pc, #28]	; (b58 <vSendImmediateIndexReport+0x64>)
     b3a:	f001 fc3f 	bl	23bc <DbgConsole_Printf>
     b3e:	4620      	mov	r0, r4
     b40:	f00d f81e 	bl	db80 <PDUM_eAPduFreeAPduInstance>
     b44:	e7e2      	b.n	b0c <vSendImmediateIndexReport+0x18>
     b46:	bf00      	nop
     b48:	00027aa3 	.word	0x00027aa3
     b4c:	00027ac4 	.word	0x00027ac4
     b50:	00027b09 	.word	0x00027b09
     b54:	00027b37 	.word	0x00027b37
     b58:	00027b41 	.word	0x00027b41

00000b5c <vSendImmediateAllReport>:
     b5c:	b530      	push	{r4, r5, lr}
     b5e:	482f      	ldr	r0, [pc, #188]	; (c1c <vSendImmediateAllReport+0xc0>)
     b60:	b087      	sub	sp, #28
     b62:	f001 fc2b 	bl	23bc <DbgConsole_Printf>
     b66:	f009 f855 	bl	9c14 <hZCL_AllocateAPduInstance>
     b6a:	4604      	mov	r4, r0
     b6c:	b920      	cbnz	r0, b78 <vSendImmediateAllReport+0x1c>
     b6e:	482c      	ldr	r0, [pc, #176]	; (c20 <vSendImmediateAllReport+0xc4>)
     b70:	f001 fc24 	bl	23bc <DbgConsole_Printf>
     b74:	b007      	add	sp, #28
     b76:	bd30      	pop	{r4, r5, pc}
     b78:	230a      	movs	r3, #10
     b7a:	f88d 3008 	strb.w	r3, [sp, #8]
     b7e:	2301      	movs	r3, #1
     b80:	9001      	str	r0, [sp, #4]
     b82:	f240 7102 	movw	r1, #1794	; 0x702
     b86:	9300      	str	r3, [sp, #0]
     b88:	2200      	movs	r2, #0
     b8a:	a802      	add	r0, sp, #8
     b8c:	f008 f854 	bl	8c38 <eZCL_ReportAttribute>
     b90:	4605      	mov	r5, r0
     b92:	4601      	mov	r1, r0
     b94:	4823      	ldr	r0, [pc, #140]	; (c24 <vSendImmediateAllReport+0xc8>)
     b96:	f001 fc11 	bl	23bc <DbgConsole_Printf>
     b9a:	bb4d      	cbnz	r5, bf0 <vSendImmediateAllReport+0x94>
     b9c:	4822      	ldr	r0, [pc, #136]	; (c28 <vSendImmediateAllReport+0xcc>)
     b9e:	f001 fc0d 	bl	23bc <DbgConsole_Printf>
     ba2:	f7ff fd25 	bl	5f0 <APP_vGetVoltageBattery>
     ba6:	2301      	movs	r3, #1
     ba8:	4619      	mov	r1, r3
     baa:	9401      	str	r4, [sp, #4]
     bac:	9300      	str	r3, [sp, #0]
     bae:	2220      	movs	r2, #32
     bb0:	a802      	add	r0, sp, #8
     bb2:	f008 f841 	bl	8c38 <eZCL_ReportAttribute>
     bb6:	4605      	mov	r5, r0
     bb8:	4601      	mov	r1, r0
     bba:	481a      	ldr	r0, [pc, #104]	; (c24 <vSendImmediateAllReport+0xc8>)
     bbc:	f001 fbfe 	bl	23bc <DbgConsole_Printf>
     bc0:	b9ed      	cbnz	r5, bfe <vSendImmediateAllReport+0xa2>
     bc2:	4819      	ldr	r0, [pc, #100]	; (c28 <vSendImmediateAllReport+0xcc>)
     bc4:	f001 fbfa 	bl	23bc <DbgConsole_Printf>
     bc8:	2001      	movs	r0, #1
     bca:	f7ff fd25 	bl	618 <APP_vRadioTempUpdate>
     bce:	2301      	movs	r3, #1
     bd0:	f240 4102 	movw	r1, #1026	; 0x402
     bd4:	9401      	str	r4, [sp, #4]
     bd6:	9300      	str	r3, [sp, #0]
     bd8:	2200      	movs	r2, #0
     bda:	a802      	add	r0, sp, #8
     bdc:	f008 f82c 	bl	8c38 <eZCL_ReportAttribute>
     be0:	4605      	mov	r5, r0
     be2:	4601      	mov	r1, r0
     be4:	480f      	ldr	r0, [pc, #60]	; (c24 <vSendImmediateAllReport+0xc8>)
     be6:	f001 fbe9 	bl	23bc <DbgConsole_Printf>
     bea:	b97d      	cbnz	r5, c0c <vSendImmediateAllReport+0xb0>
     bec:	480e      	ldr	r0, [pc, #56]	; (c28 <vSendImmediateAllReport+0xcc>)
     bee:	e7bf      	b.n	b70 <vSendImmediateAllReport+0x14>
     bf0:	480e      	ldr	r0, [pc, #56]	; (c2c <vSendImmediateAllReport+0xd0>)
     bf2:	f001 fbe3 	bl	23bc <DbgConsole_Printf>
     bf6:	4620      	mov	r0, r4
     bf8:	f00c ffc2 	bl	db80 <PDUM_eAPduFreeAPduInstance>
     bfc:	e7d1      	b.n	ba2 <vSendImmediateAllReport+0x46>
     bfe:	480b      	ldr	r0, [pc, #44]	; (c2c <vSendImmediateAllReport+0xd0>)
     c00:	f001 fbdc 	bl	23bc <DbgConsole_Printf>
     c04:	4620      	mov	r0, r4
     c06:	f00c ffbb 	bl	db80 <PDUM_eAPduFreeAPduInstance>
     c0a:	e7dd      	b.n	bc8 <vSendImmediateAllReport+0x6c>
     c0c:	4807      	ldr	r0, [pc, #28]	; (c2c <vSendImmediateAllReport+0xd0>)
     c0e:	f001 fbd5 	bl	23bc <DbgConsole_Printf>
     c12:	4620      	mov	r0, r4
     c14:	f00c ffb4 	bl	db80 <PDUM_eAPduFreeAPduInstance>
     c18:	e7ac      	b.n	b74 <vSendImmediateAllReport+0x18>
     c1a:	bf00      	nop
     c1c:	00027aa3 	.word	0x00027aa3
     c20:	00027ac4 	.word	0x00027ac4
     c24:	00027b09 	.word	0x00027b09
     c28:	00027b37 	.word	0x00027b37
     c2c:	00027b41 	.word	0x00027b41

00000c30 <vfExtendedStatusCallBack>:
     c30:	4601      	mov	r1, r0
     c32:	4801      	ldr	r0, [pc, #4]	; (c38 <vfExtendedStatusCallBack+0x8>)
     c34:	f001 bbc2 	b.w	23bc <DbgConsole_Printf>
     c38:	00027b4a 	.word	0x00027b4a

00000c3c <PreSleep>:
     c3c:	b538      	push	{r3, r4, r5, lr}
     c3e:	4c2a      	ldr	r4, [pc, #168]	; (ce8 <PreSleep+0xac>)
     c40:	7825      	ldrb	r5, [r4, #0]
     c42:	f007 f8d3 	bl	7dec <OSA_TimeGetMsec>
     c46:	4629      	mov	r1, r5
     c48:	4602      	mov	r2, r0
     c4a:	4828      	ldr	r0, [pc, #160]	; (cec <PreSleep+0xb0>)
     c4c:	f001 fbb6 	bl	23bc <DbgConsole_Printf>
     c50:	2000      	movs	r0, #0
     c52:	f004 f9eb 	bl	502c <WTIMER_GetStatusFlags>
     c56:	4605      	mov	r5, r0
     c58:	4601      	mov	r1, r0
     c5a:	4825      	ldr	r0, [pc, #148]	; (cf0 <PreSleep+0xb4>)
     c5c:	f001 fbae 	bl	23bc <DbgConsole_Printf>
     c60:	2d01      	cmp	r5, #1
     c62:	d10b      	bne.n	c7c <PreSleep+0x40>
     c64:	2000      	movs	r0, #0
     c66:	f004 fa4b 	bl	5100 <WTIMER_ReadTimer>
     c6a:	4605      	mov	r5, r0
     c6c:	f000 ff36 	bl	1adc <u32GetWakeTimerCalibration>
     c70:	4629      	mov	r1, r5
     c72:	fbb5 f2f0 	udiv	r2, r5, r0
     c76:	481f      	ldr	r0, [pc, #124]	; (cf4 <PreSleep+0xb8>)
     c78:	f001 fba0 	bl	23bc <DbgConsole_Printf>
     c7c:	2001      	movs	r0, #1
     c7e:	f004 f9d5 	bl	502c <WTIMER_GetStatusFlags>
     c82:	4605      	mov	r5, r0
     c84:	4601      	mov	r1, r0
     c86:	481c      	ldr	r0, [pc, #112]	; (cf8 <PreSleep+0xbc>)
     c88:	f001 fb98 	bl	23bc <DbgConsole_Printf>
     c8c:	2d01      	cmp	r5, #1
     c8e:	d10b      	bne.n	ca8 <PreSleep+0x6c>
     c90:	4628      	mov	r0, r5
     c92:	f004 fa35 	bl	5100 <WTIMER_ReadTimer>
     c96:	4605      	mov	r5, r0
     c98:	f000 ff20 	bl	1adc <u32GetWakeTimerCalibration>
     c9c:	4629      	mov	r1, r5
     c9e:	fbb5 f2f0 	udiv	r2, r5, r0
     ca2:	4814      	ldr	r0, [pc, #80]	; (cf4 <PreSleep+0xb8>)
     ca4:	f001 fb8a 	bl	23bc <DbgConsole_Printf>
     ca8:	7823      	ldrb	r3, [r4, #0]
     caa:	b90b      	cbnz	r3, cb0 <PreSleep+0x74>
     cac:	f022 f858 	bl	22d60 <vAppApiSaveMacSettings>
     cb0:	f000 fec8 	bl	1a44 <vSaveDioStateBeforeDeepSleep>
     cb4:	7821      	ldrb	r1, [r4, #0]
     cb6:	4811      	ldr	r0, [pc, #68]	; (cfc <PreSleep+0xc0>)
     cb8:	2203      	movs	r2, #3
     cba:	f001 fb7f 	bl	23bc <DbgConsole_Printf>
     cbe:	7823      	ldrb	r3, [r4, #0]
     cc0:	b11b      	cbz	r3, cca <PreSleep+0x8e>
     cc2:	480f      	ldr	r0, [pc, #60]	; (d00 <PreSleep+0xc4>)
     cc4:	2101      	movs	r1, #1
     cc6:	f001 fb79 	bl	23bc <DbgConsole_Printf>
     cca:	2003      	movs	r0, #3
     ccc:	f006 f8da 	bl	6e84 <PWR_vWakeUpConfig>
     cd0:	f002 f86e 	bl	2db0 <ZTIMER_vSleep>
     cd4:	7821      	ldrb	r1, [r4, #0]
     cd6:	480b      	ldr	r0, [pc, #44]	; (d04 <PreSleep+0xc8>)
     cd8:	f001 fb70 	bl	23bc <DbgConsole_Printf>
     cdc:	f001 fb52 	bl	2384 <DbgConsole_Deinit>
     ce0:	e8bd 4038 	ldmia.w	sp!, {r3, r4, r5, lr}
     ce4:	f001 bca6 	b.w	2634 <BOARD_SetPinsForPowerMode>
     ce8:	040146d9 	.word	0x040146d9
     cec:	00027b65 	.word	0x00027b65
     cf0:	00027b9b 	.word	0x00027b9b
     cf4:	00027bcd 	.word	0x00027bcd
     cf8:	00027bd9 	.word	0x00027bd9
     cfc:	00027c0b 	.word	0x00027c0b
     d00:	00027c41 	.word	0x00027c41
     d04:	00027c4d 	.word	0x00027c4d

00000d08 <Wakeup>:
     d08:	b510      	push	{r4, lr}
     d0a:	4b10      	ldr	r3, [pc, #64]	; (d4c <Wakeup+0x44>)
     d0c:	781c      	ldrb	r4, [r3, #0]
     d0e:	b9dc      	cbnz	r4, d48 <Wakeup+0x40>
     d10:	2002      	movs	r0, #2
     d12:	f7ff fb87 	bl	424 <APP_vSetUpHardware>
     d16:	4620      	mov	r0, r4
     d18:	f004 f988 	bl	502c <WTIMER_GetStatusFlags>
     d1c:	3801      	subs	r0, #1
     d1e:	b2c0      	uxtb	r0, r0
     d20:	2801      	cmp	r0, #1
     d22:	d802      	bhi.n	d2a <Wakeup+0x22>
     d24:	4620      	mov	r0, r4
     d26:	f004 f997 	bl	5058 <WTIMER_EnableInterrupts>
     d2a:	f01a f883 	bl	1ae34 <vAppApiRestoreMacSettings>
     d2e:	f002 f847 	bl	2dc0 <ZTIMER_vWake>
     d32:	4b07      	ldr	r3, [pc, #28]	; (d50 <Wakeup+0x48>)
     d34:	2132      	movs	r1, #50	; 0x32
     d36:	7818      	ldrb	r0, [r3, #0]
     d38:	f002 f8ae 	bl	2e98 <ZTIMER_eStart>
     d3c:	f000 fe04 	bl	1948 <APP_bButtonInitialise>
     d40:	e8bd 4010 	ldmia.w	sp!, {r4, lr}
     d44:	f000 be60 	b.w	1a08 <vActionOnButtonActivationAfterDeepSleep>
     d48:	bd10      	pop	{r4, pc}
     d4a:	bf00      	nop
     d4c:	040146d9 	.word	0x040146d9
     d50:	04012b17 	.word	0x04012b17

00000d54 <vAppMain>:
     d54:	b510      	push	{r4, lr}
     d56:	482c      	ldr	r0, [pc, #176]	; (e08 <vAppMain+0xb4>)
     d58:	4c2c      	ldr	r4, [pc, #176]	; (e0c <vAppMain+0xb8>)
     d5a:	b086      	sub	sp, #24
     d5c:	f001 fb2e 	bl	23bc <DbgConsole_Printf>
     d60:	f004 fa40 	bl	51e4 <vDebugExceptionHandlersInitialise>
     d64:	a801      	add	r0, sp, #4
     d66:	f002 fb49 	bl	33fc <WWDT_GetDefaultConfig>
     d6a:	6f23      	ldr	r3, [r4, #112]	; 0x70
     d6c:	06db      	lsls	r3, r3, #27
     d6e:	d504      	bpl.n	d7a <vAppMain+0x26>
     d70:	4827      	ldr	r0, [pc, #156]	; (e10 <vAppMain+0xbc>)
     d72:	f001 fb23 	bl	23bc <DbgConsole_Printf>
     d76:	2310      	movs	r3, #16
     d78:	6723      	str	r3, [r4, #112]	; 0x70
     d7a:	4826      	ldr	r0, [pc, #152]	; (e14 <vAppMain+0xc0>)
     d7c:	f001 fb1e 	bl	23bc <DbgConsole_Printf>
     d80:	f7ff fbbc 	bl	4fc <APP_vInitResources>
     d84:	4824      	ldr	r0, [pc, #144]	; (e18 <vAppMain+0xc4>)
     d86:	f001 fb19 	bl	23bc <DbgConsole_Printf>
     d8a:	4824      	ldr	r0, [pc, #144]	; (e1c <vAppMain+0xc8>)
     d8c:	f001 fb16 	bl	23bc <DbgConsole_Printf>
     d90:	4b23      	ldr	r3, [pc, #140]	; (e20 <vAppMain+0xcc>)
     d92:	2400      	movs	r4, #0
     d94:	2001      	movs	r0, #1
     d96:	701c      	strb	r4, [r3, #0]
     d98:	f005 fe40 	bl	6a1c <PWR_ChangeDeepSleepMode>
     d9c:	f005 fe60 	bl	6a60 <PWR_Init>
     da0:	2001      	movs	r0, #1
     da2:	f006 f8a9 	bl	6ef8 <PWR_vForceRadioRetention>
     da6:	481f      	ldr	r0, [pc, #124]	; (e24 <vAppMain+0xd0>)
     da8:	f001 fb08 	bl	23bc <DbgConsole_Printf>
     dac:	4622      	mov	r2, r4
     dae:	213f      	movs	r1, #63	; 0x3f
     db0:	f44f 6096 	mov.w	r0, #1200	; 0x4b0
     db4:	f00d f964 	bl	e080 <PDM_eInitialise>
     db8:	f7ff fd0e 	bl	7d8 <PDUM_vInit>
     dbc:	481a      	ldr	r0, [pc, #104]	; (e28 <vAppMain+0xd4>)
     dbe:	f01a fac1 	bl	1b344 <ZPS_vExtendedStatusSetCallback>
     dc2:	481a      	ldr	r0, [pc, #104]	; (e2c <vAppMain+0xd8>)
     dc4:	f001 fafa 	bl	23bc <DbgConsole_Printf>
     dc8:	f000 fa36 	bl	1238 <APP_vInitialiseNode>
     dcc:	f007 f80e 	bl	7dec <OSA_TimeGetMsec>
     dd0:	4601      	mov	r1, r0
     dd2:	4817      	ldr	r0, [pc, #92]	; (e30 <vAppMain+0xdc>)
     dd4:	f001 faf2 	bl	23bc <DbgConsole_Printf>
     dd8:	4816      	ldr	r0, [pc, #88]	; (e34 <vAppMain+0xe0>)
     dda:	f001 faef 	bl	23bc <DbgConsole_Printf>
     dde:	f00b fc15 	bl	c60c <BDB_vStart>
     de2:	f000 f9f7 	bl	11d4 <APP_bNodeIsInRunningState>
     de6:	b908      	cbnz	r0, dec <vAppMain+0x98>
     de8:	f00b fe70 	bl	cacc <BDB_eNsStartNwkSteering>
     dec:	f04f 4380 	mov.w	r3, #1073741824	; 0x40000000
     df0:	2202      	movs	r2, #2
     df2:	f8c3 2280 	str.w	r2, [r3, #640]	; 0x280
     df6:	f002 fa33 	bl	3260 <SystemCoreClockUpdate>
     dfa:	f006 ffdf 	bl	7dbc <OSA_TimeInit>
     dfe:	480e      	ldr	r0, [pc, #56]	; (e38 <vAppMain+0xe4>)
     e00:	f001 fadc 	bl	23bc <DbgConsole_Printf>
     e04:	b006      	add	sp, #24
     e06:	bd10      	pop	{r4, pc}
     e08:	00027c95 	.word	0x00027c95
     e0c:	40012000 	.word	0x40012000
     e10:	00027caf 	.word	0x00027caf
     e14:	00027cd9 	.word	0x00027cd9
     e18:	00027d05 	.word	0x00027d05
     e1c:	00027d31 	.word	0x00027d31
     e20:	040146d9 	.word	0x040146d9
     e24:	00027d51 	.word	0x00027d51
     e28:	00000c31 	.word	0x00000c31
     e2c:	00027d80 	.word	0x00027d80
     e30:	00027db3 	.word	0x00027db3
     e34:	00027de3 	.word	0x00027de3
     e38:	00027e07 	.word	0x00027e07

00000e3c <vAppRegisterPWRCallbacks>:
     e3c:	b508      	push	{r3, lr}
     e3e:	4804      	ldr	r0, [pc, #16]	; (e50 <vAppRegisterPWRCallbacks+0x14>)
     e40:	f005 ff1c 	bl	6c7c <PWR_RegisterLowPowerEnterCallback>
     e44:	e8bd 4008 	ldmia.w	sp!, {r3, lr}
     e48:	4802      	ldr	r0, [pc, #8]	; (e54 <vAppRegisterPWRCallbacks+0x18>)
     e4a:	f005 bf1d 	b.w	6c88 <PWR_RegisterLowPowerExitCallback>
     e4e:	bf00      	nop
     e50:	00000c3d 	.word	0x00000c3d
     e54:	00000d09 	.word	0x00000d09

00000e58 <hardware_init>:
     e58:	b510      	push	{r4, lr}
     e5a:	4c0a      	ldr	r4, [pc, #40]	; (e84 <hardware_init+0x2c>)
     e5c:	7822      	ldrb	r2, [r4, #0]
     e5e:	b982      	cbnz	r2, e82 <hardware_init+0x2a>
     e60:	4b09      	ldr	r3, [pc, #36]	; (e88 <hardware_init+0x30>)
     e62:	6f1b      	ldr	r3, [r3, #112]	; 0x70
     e64:	f013 0f60 	tst.w	r3, #96	; 0x60
     e68:	bf1c      	itt	ne
     e6a:	4b08      	ldrne	r3, [pc, #32]	; (e8c <hardware_init+0x34>)
     e6c:	2201      	movne	r2, #1
     e6e:	f04f 0001 	mov.w	r0, #1
     e72:	bf18      	it	ne
     e74:	701a      	strbne	r2, [r3, #0]
     e76:	f7ff fad5 	bl	424 <APP_vSetUpHardware>
     e7a:	f006 f87d 	bl	6f78 <PWR_vColdStart>
     e7e:	2301      	movs	r3, #1
     e80:	7023      	strb	r3, [r4, #0]
     e82:	bd10      	pop	{r4, pc}
     e84:	04014348 	.word	0x04014348
     e88:	40012000 	.word	0x40012000
     e8c:	040146d9 	.word	0x040146d9

00000e90 <eApp_ZLO_RegisterEndpoint>:
     e90:	4601      	mov	r1, r0
     e92:	4a02      	ldr	r2, [pc, #8]	; (e9c <eApp_ZLO_RegisterEndpoint+0xc>)
     e94:	2001      	movs	r0, #1
     e96:	f007 bb2f 	b.w	84f8 <eZHA_RegisterBaseDeviceEndPoint>
     e9a:	bf00      	nop
     e9c:	04014350 	.word	0x04014350

00000ea0 <vAPP_ZCL_DeviceSpecific_Init>:
     ea0:	b510      	push	{r4, lr}
     ea2:	4c14      	ldr	r4, [pc, #80]	; (ef4 <vAPP_ZCL_DeviceSpecific_Init+0x54>)
     ea4:	4914      	ldr	r1, [pc, #80]	; (ef8 <vAPP_ZCL_DeviceSpecific_Init+0x58>)
     ea6:	2204      	movs	r2, #4
     ea8:	f104 00e8 	add.w	r0, r4, #232	; 0xe8
     eac:	f026 f910 	bl	270d0 <memcpy>
     eb0:	4912      	ldr	r1, [pc, #72]	; (efc <vAPP_ZCL_DeviceSpecific_Init+0x5c>)
     eb2:	2208      	movs	r2, #8
     eb4:	f504 7088 	add.w	r0, r4, #272	; 0x110
     eb8:	f026 f90a 	bl	270d0 <memcpy>
     ebc:	4910      	ldr	r1, [pc, #64]	; (f00 <vAPP_ZCL_DeviceSpecific_Init+0x60>)
     ebe:	2208      	movs	r2, #8
     ec0:	f504 709c 	add.w	r0, r4, #312	; 0x138
     ec4:	f026 f904 	bl	270d0 <memcpy>
     ec8:	490e      	ldr	r1, [pc, #56]	; (f04 <vAPP_ZCL_DeviceSpecific_Init+0x64>)
     eca:	2209      	movs	r2, #9
     ecc:	f504 70ca 	add.w	r0, r4, #404	; 0x194
     ed0:	f026 f8fe 	bl	270d0 <memcpy>
     ed4:	490c      	ldr	r1, [pc, #48]	; (f08 <vAPP_ZCL_DeviceSpecific_Init+0x68>)
     ed6:	2208      	movs	r2, #8
     ed8:	f504 70b6 	add.w	r0, r4, #364	; 0x16c
     edc:	f026 f8f8 	bl	270d0 <memcpy>
     ee0:	490a      	ldr	r1, [pc, #40]	; (f0c <vAPP_ZCL_DeviceSpecific_Init+0x6c>)
     ee2:	2204      	movs	r2, #4
     ee4:	f504 70aa 	add.w	r0, r4, #340	; 0x154
     ee8:	f026 f8f2 	bl	270d0 <memcpy>
     eec:	23e3      	movs	r3, #227	; 0xe3
     eee:	f884 314a 	strb.w	r3, [r4, #330]	; 0x14a
     ef2:	bd10      	pop	{r4, pc}
     ef4:	04014350 	.word	0x04014350
     ef8:	00027e20 	.word	0x00027e20
     efc:	00027e26 	.word	0x00027e26
     f00:	00027e2f 	.word	0x00027e2f
     f04:	00027e38 	.word	0x00027e38
     f08:	00027e42 	.word	0x00027e42
     f0c:	00027e3d 	.word	0x00027e3d

00000f10 <vAPP_ZCL_DeviceSpecific_UpdateIdentify>:
     f10:	4b03      	ldr	r3, [pc, #12]	; (f20 <vAPP_ZCL_DeviceSpecific_UpdateIdentify+0x10>)
     f12:	f893 11ac 	ldrb.w	r1, [r3, #428]	; 0x1ac
     f16:	2001      	movs	r0, #1
     f18:	f001 0101 	and.w	r1, r1, #1
     f1c:	f001 b95e 	b.w	21dc <APP_vSetLED>
     f20:	04014350 	.word	0x04014350

00000f24 <vAPP_ZCL_DeviceSpecific_IdentifyOff>:
     f24:	4b03      	ldr	r3, [pc, #12]	; (f34 <vAPP_ZCL_DeviceSpecific_IdentifyOff+0x10>)
     f26:	2100      	movs	r1, #0
     f28:	2001      	movs	r0, #1
     f2a:	f8a3 11ac 	strh.w	r1, [r3, #428]	; 0x1ac
     f2e:	f001 b955 	b.w	21dc <APP_vSetLED>
     f32:	bf00      	nop
     f34:	04014350 	.word	0x04014350

00000f38 <APP_vBdbCallback>:
     f38:	b510      	push	{r4, lr}
     f3a:	7801      	ldrb	r1, [r0, #0]
     f3c:	b088      	sub	sp, #32
     f3e:	4604      	mov	r4, r0
     f40:	2917      	cmp	r1, #23
     f42:	f200 80cf 	bhi.w	10e4 <STACK_SIZE+0x104>
     f46:	e8df f011 	tbh	[pc, r1, lsl #1]
     f4a:	0046      	.short	0x0046
     f4c:	00480018 	.word	0x00480018
     f50:	00520058 	.word	0x00520058
     f54:	0078006f 	.word	0x0078006f
     f58:	00cd007a 	.word	0x00cd007a
     f5c:	00cd007c 	.word	0x00cd007c
     f60:	008000cd 	.word	0x008000cd
     f64:	0095008f 	.word	0x0095008f
     f68:	00b40099 	.word	0x00b40099
     f6c:	00b600b8 	.word	0x00b600b8
     f70:	00bc00ba 	.word	0x00bc00ba
     f74:	00cd00cb 	.word	0x00cd00cb
     f78:	004c      	.short	0x004c
     f7a:	7c01      	ldrb	r1, [r0, #16]
     f7c:	290f      	cmp	r1, #15
     f7e:	d002      	beq.n	f86 <APP_vBdbCallback+0x4e>
     f80:	4859      	ldr	r0, [pc, #356]	; (10e8 <STACK_SIZE+0x108>)
     f82:	f001 fa1b 	bl	23bc <DbgConsole_Printf>
     f86:	7a23      	ldrb	r3, [r4, #8]
     f88:	2b01      	cmp	r3, #1
     f8a:	d10d      	bne.n	fa8 <APP_vBdbCallback+0x70>
     f8c:	4857      	ldr	r0, [pc, #348]	; (10ec <STACK_SIZE+0x10c>)
     f8e:	f001 fa15 	bl	23bc <DbgConsole_Printf>
     f92:	f104 0010 	add.w	r0, r4, #16
     f96:	f000 fbab 	bl	16f0 <APP_ZCL_vEventHandler>
     f9a:	7c23      	ldrb	r3, [r4, #16]
     f9c:	2b01      	cmp	r3, #1
     f9e:	d118      	bne.n	fd2 <APP_vBdbCallback+0x9a>
     fa0:	6aa0      	ldr	r0, [r4, #40]	; 0x28
     fa2:	f00c fded 	bl	db80 <PDUM_eAPduFreeAPduInstance>
     fa6:	e016      	b.n	fd6 <APP_vBdbCallback+0x9e>
     fa8:	2b00      	cmp	r3, #0
     faa:	d1f6      	bne.n	f9a <APP_vBdbCallback+0x62>
     fac:	7c23      	ldrb	r3, [r4, #16]
     fae:	2b0f      	cmp	r3, #15
     fb0:	d002      	beq.n	fb8 <APP_vBdbCallback+0x80>
     fb2:	484f      	ldr	r0, [pc, #316]	; (10f0 <STACK_SIZE+0x110>)
     fb4:	f001 fa02 	bl	23bc <DbgConsole_Printf>
     fb8:	4b4e      	ldr	r3, [pc, #312]	; (10f4 <STACK_SIZE+0x114>)
     fba:	781b      	ldrb	r3, [r3, #0]
     fbc:	b133      	cbz	r3, fcc <APP_vBdbCallback+0x94>
     fbe:	2b02      	cmp	r3, #2
     fc0:	d1eb      	bne.n	f9a <APP_vBdbCallback+0x62>
     fc2:	f104 0010 	add.w	r0, r4, #16
     fc6:	f000 fd53 	bl	1a70 <vAppHandleRunning>
     fca:	e7e6      	b.n	f9a <APP_vBdbCallback+0x62>
     fcc:	f000 fd78 	bl	1ac0 <vAppHandleStartup>
     fd0:	e7e3      	b.n	f9a <APP_vBdbCallback+0x62>
     fd2:	2b16      	cmp	r3, #22
     fd4:	d0e4      	beq.n	fa0 <APP_vBdbCallback+0x68>
     fd6:	b008      	add	sp, #32
     fd8:	bd10      	pop	{r4, pc}
     fda:	4847      	ldr	r0, [pc, #284]	; (10f8 <STACK_SIZE+0x118>)
     fdc:	f001 f9ee 	bl	23bc <DbgConsole_Printf>
     fe0:	e7f9      	b.n	fd6 <APP_vBdbCallback+0x9e>
     fe2:	4846      	ldr	r0, [pc, #280]	; (10fc <STACK_SIZE+0x11c>)
     fe4:	f001 f9ea 	bl	23bc <DbgConsole_Printf>
     fe8:	f000 ff5e 	bl	1ea8 <vHandleFailedRejoin>
     fec:	e7f3      	b.n	fd6 <APP_vBdbCallback+0x9e>
     fee:	4844      	ldr	r0, [pc, #272]	; (1100 <STACK_SIZE+0x120>)
     ff0:	f001 f9e4 	bl	23bc <DbgConsole_Printf>
     ff4:	f000 ff44 	bl	1e80 <vHandleFailedToJoin>
     ff8:	e7ed      	b.n	fd6 <APP_vBdbCallback+0x9e>
     ffa:	4842      	ldr	r0, [pc, #264]	; (1104 <STACK_SIZE+0x124>)
     ffc:	f001 f9de 	bl	23bc <DbgConsole_Printf>
    1000:	4b41      	ldr	r3, [pc, #260]	; (1108 <STACK_SIZE+0x128>)
    1002:	2200      	movs	r2, #0
    1004:	701a      	strb	r2, [r3, #0]
    1006:	f000 ff5f 	bl	1ec8 <vHandleNetworkJoinEndDevice>
    100a:	4b40      	ldr	r3, [pc, #256]	; (110c <STACK_SIZE+0x12c>)
    100c:	4840      	ldr	r0, [pc, #256]	; (1110 <STACK_SIZE+0x130>)
    100e:	2464      	movs	r4, #100	; 0x64
    1010:	601c      	str	r4, [r3, #0]
    1012:	f001 f9d3 	bl	23bc <DbgConsole_Printf>
    1016:	4a3f      	ldr	r2, [pc, #252]	; (1114 <STACK_SIZE+0x134>)
    1018:	7813      	ldrb	r3, [r2, #0]
    101a:	f043 0301 	orr.w	r3, r3, #1
    101e:	7013      	strb	r3, [r2, #0]
    1020:	2064      	movs	r0, #100	; 0x64
    1022:	f000 fec5 	bl	1db0 <vStartPollTimer>
    1026:	e7d6      	b.n	fd6 <APP_vBdbCallback+0x9e>
    1028:	483b      	ldr	r0, [pc, #236]	; (1118 <STACK_SIZE+0x138>)
    102a:	f001 f9c7 	bl	23bc <DbgConsole_Printf>
    102e:	4b36      	ldr	r3, [pc, #216]	; (1108 <STACK_SIZE+0x128>)
    1030:	2200      	movs	r2, #0
    1032:	701a      	strb	r2, [r3, #0]
    1034:	f000 ff84 	bl	1f40 <vHandleNetworkJoinAndRejoin>
    1038:	e7e7      	b.n	100a <STACK_SIZE+0x2a>
    103a:	4838      	ldr	r0, [pc, #224]	; (111c <STACK_SIZE+0x13c>)
    103c:	e7d8      	b.n	ff0 <STACK_SIZE+0x10>
    103e:	4838      	ldr	r0, [pc, #224]	; (1120 <STACK_SIZE+0x140>)
    1040:	e7cc      	b.n	fdc <APP_vBdbCallback+0xa4>
    1042:	4838      	ldr	r0, [pc, #224]	; (1124 <STACK_SIZE+0x144>)
    1044:	f001 f9ba 	bl	23bc <DbgConsole_Printf>
    1048:	e7ea      	b.n	1020 <STACK_SIZE+0x40>
    104a:	4837      	ldr	r0, [pc, #220]	; (1128 <STACK_SIZE+0x148>)
    104c:	f001 f9b6 	bl	23bc <DbgConsole_Printf>
    1050:	68a0      	ldr	r0, [r4, #8]
    1052:	7a04      	ldrb	r4, [r0, #8]
    1054:	8883      	ldrh	r3, [r0, #4]
    1056:	8842      	ldrh	r2, [r0, #2]
    1058:	7841      	ldrb	r1, [r0, #1]
    105a:	9401      	str	r4, [sp, #4]
    105c:	88c0      	ldrh	r0, [r0, #6]
    105e:	9000      	str	r0, [sp, #0]
    1060:	4832      	ldr	r0, [pc, #200]	; (112c <STACK_SIZE+0x14c>)
    1062:	f001 f9ab 	bl	23bc <DbgConsole_Printf>
    1066:	e7b6      	b.n	fd6 <APP_vBdbCallback+0x9e>
    1068:	6883      	ldr	r3, [r0, #8]
    106a:	4831      	ldr	r0, [pc, #196]	; (1130 <STACK_SIZE+0x150>)
    106c:	8959      	ldrh	r1, [r3, #10]
    106e:	f001 f9a5 	bl	23bc <DbgConsole_Printf>
    1072:	e7b0      	b.n	fd6 <APP_vBdbCallback+0x9e>
    1074:	6883      	ldr	r3, [r0, #8]
    1076:	482f      	ldr	r0, [pc, #188]	; (1134 <STACK_SIZE+0x154>)
    1078:	8959      	ldrh	r1, [r3, #10]
    107a:	e7f8      	b.n	106e <STACK_SIZE+0x8e>
    107c:	6883      	ldr	r3, [r0, #8]
    107e:	482e      	ldr	r0, [pc, #184]	; (1138 <STACK_SIZE+0x158>)
    1080:	7859      	ldrb	r1, [r3, #1]
    1082:	f001 f99b 	bl	23bc <DbgConsole_Printf>
    1086:	4a2d      	ldr	r2, [pc, #180]	; (113c <STACK_SIZE+0x15c>)
    1088:	2300      	movs	r3, #0
    108a:	7013      	strb	r3, [r2, #0]
    108c:	f8ad 300c 	strh.w	r3, [sp, #12]
    1090:	2307      	movs	r3, #7
    1092:	f88d 3010 	strb.w	r3, [sp, #16]
    1096:	68a3      	ldr	r3, [r4, #8]
    1098:	885a      	ldrh	r2, [r3, #2]
    109a:	f8ad 2018 	strh.w	r2, [sp, #24]
    109e:	7859      	ldrb	r1, [r3, #1]
    10a0:	7818      	ldrb	r0, [r3, #0]
    10a2:	ab03      	add	r3, sp, #12
    10a4:	9300      	str	r3, [sp, #0]
    10a6:	aa04      	add	r2, sp, #16
    10a8:	f10d 030b 	add.w	r3, sp, #11
    10ac:	f007 f8e8 	bl	8280 <eCLD_IdentifyCommandIdentifyRequestSend>
    10b0:	e791      	b.n	fd6 <APP_vBdbCallback+0x9e>
    10b2:	4823      	ldr	r0, [pc, #140]	; (1140 <STACK_SIZE+0x160>)
    10b4:	e792      	b.n	fdc <APP_vBdbCallback+0xa4>
    10b6:	4823      	ldr	r0, [pc, #140]	; (1144 <STACK_SIZE+0x164>)
    10b8:	e790      	b.n	fdc <APP_vBdbCallback+0xa4>
    10ba:	4823      	ldr	r0, [pc, #140]	; (1148 <STACK_SIZE+0x168>)
    10bc:	e78e      	b.n	fdc <APP_vBdbCallback+0xa4>
    10be:	4823      	ldr	r0, [pc, #140]	; (114c <STACK_SIZE+0x16c>)
    10c0:	e78c      	b.n	fdc <APP_vBdbCallback+0xa4>
    10c2:	4823      	ldr	r0, [pc, #140]	; (1150 <STACK_SIZE+0x170>)
    10c4:	f001 f97a 	bl	23bc <DbgConsole_Printf>
    10c8:	4a1c      	ldr	r2, [pc, #112]	; (113c <STACK_SIZE+0x15c>)
    10ca:	7813      	ldrb	r3, [r2, #0]
    10cc:	2b01      	cmp	r3, #1
    10ce:	d904      	bls.n	10da <STACK_SIZE+0xfa>
    10d0:	2300      	movs	r3, #0
    10d2:	7013      	strb	r3, [r2, #0]
    10d4:	f00b ffa2 	bl	d01c <BDB_vFbExitAsInitiator>
    10d8:	e77d      	b.n	fd6 <APP_vBdbCallback+0x9e>
    10da:	3301      	adds	r3, #1
    10dc:	7013      	strb	r3, [r2, #0]
    10de:	e77a      	b.n	fd6 <APP_vBdbCallback+0x9e>
    10e0:	481c      	ldr	r0, [pc, #112]	; (1154 <STACK_SIZE+0x174>)
    10e2:	e77b      	b.n	fdc <APP_vBdbCallback+0xa4>
    10e4:	481c      	ldr	r0, [pc, #112]	; (1158 <STACK_SIZE+0x178>)
    10e6:	e7c2      	b.n	106e <STACK_SIZE+0x8e>
    10e8:	00027e4c 	.word	0x00027e4c
    10ec:	00027e70 	.word	0x00027e70
    10f0:	00027ea7 	.word	0x00027ea7
    10f4:	040146f8 	.word	0x040146f8
    10f8:	00027edc 	.word	0x00027edc
    10fc:	00027f03 	.word	0x00027f03
    1100:	00027f39 	.word	0x00027f39
    1104:	00027f62 	.word	0x00027f62
    1108:	040146d8 	.word	0x040146d8
    110c:	040146fc 	.word	0x040146fc
    1110:	00027f8b 	.word	0x00027f8b
    1114:	04012a51 	.word	0x04012a51
    1118:	00027fae 	.word	0x00027fae
    111c:	00027fdd 	.word	0x00027fdd
    1120:	00028002 	.word	0x00028002
    1124:	0002802d 	.word	0x0002802d
    1128:	00028059 	.word	0x00028059
    112c:	00028098 	.word	0x00028098
    1130:	000280c1 	.word	0x000280c1
    1134:	00028116 	.word	0x00028116
    1138:	00028163 	.word	0x00028163
    113c:	04014700 	.word	0x04014700
    1140:	000281a7 	.word	0x000281a7
    1144:	000281da 	.word	0x000281da
    1148:	0002820e 	.word	0x0002820e
    114c:	0002823e 	.word	0x0002823e
    1150:	0002826f 	.word	0x0002826f
    1154:	0002829e 	.word	0x0002829e
    1158:	000282c3 	.word	0x000282c3

0000115c <APP_taskSensor>:
    115c:	b51f      	push	{r0, r1, r2, r3, r4, lr}
    115e:	ac01      	add	r4, sp, #4
    1160:	2300      	movs	r3, #0
    1162:	4809      	ldr	r0, [pc, #36]	; (1188 <APP_taskSensor+0x2c>)
    1164:	f88d 3004 	strb.w	r3, [sp, #4]
    1168:	4621      	mov	r1, r4
    116a:	f001 fded 	bl	2d48 <ZQ_bQueueReceive>
    116e:	2801      	cmp	r0, #1
    1170:	d108      	bne.n	1184 <APP_taskSensor+0x28>
    1172:	f89d 1004 	ldrb.w	r1, [sp, #4]
    1176:	4805      	ldr	r0, [pc, #20]	; (118c <APP_taskSensor+0x30>)
    1178:	f001 f920 	bl	23bc <DbgConsole_Printf>
    117c:	e894 0007 	ldmia.w	r4, {r0, r1, r2}
    1180:	f000 ff32 	bl	1fe8 <vAppHandleAppEvent>
    1184:	b004      	add	sp, #16
    1186:	bd10      	pop	{r4, pc}
    1188:	04012a54 	.word	0x04012a54
    118c:	000282ec 	.word	0x000282ec

00001190 <APP_vFactoryResetRecords>:
    1190:	b510      	push	{r4, lr}
    1192:	4c0e      	ldr	r4, [pc, #56]	; (11cc <APP_vFactoryResetRecords+0x3c>)
    1194:	480e      	ldr	r0, [pc, #56]	; (11d0 <APP_vFactoryResetRecords+0x40>)
    1196:	2300      	movs	r3, #0
    1198:	7023      	strb	r3, [r4, #0]
    119a:	f001 f90f 	bl	23bc <DbgConsole_Printf>
    119e:	f7ff fba5 	bl	8ec <ZPS_pvAplZdoGetAplHandle>
    11a2:	f014 fa43 	bl	1562c <zps_vDefaultStack>
    11a6:	f7ff fba1 	bl	8ec <ZPS_pvAplZdoGetAplHandle>
    11aa:	2300      	movs	r3, #0
    11ac:	2200      	movs	r2, #0
    11ae:	f012 fe3c 	bl	13e2a <zps_eAplAibSetApsUseExtendedPanId>
    11b2:	f013 f999 	bl	144e8 <ZPS_vSetKeys>
    11b6:	4621      	mov	r1, r4
    11b8:	2202      	movs	r2, #2
    11ba:	2001      	movs	r0, #1
    11bc:	f00e fe36 	bl	fe2c <PDM_eSaveRecordData>
    11c0:	f7ff fb94 	bl	8ec <ZPS_pvAplZdoGetAplHandle>
    11c4:	e8bd 4010 	ldmia.w	sp!, {r4, lr}
    11c8:	f013 b968 	b.w	1449c <zps_vSaveAllZpsRecords>
    11cc:	040146f8 	.word	0x040146f8
    11d0:	00028311 	.word	0x00028311

000011d4 <APP_bNodeIsInRunningState>:
    11d4:	b510      	push	{r4, lr}
    11d6:	4c05      	ldr	r4, [pc, #20]	; (11ec <APP_bNodeIsInRunningState+0x18>)
    11d8:	4805      	ldr	r0, [pc, #20]	; (11f0 <APP_bNodeIsInRunningState+0x1c>)
    11da:	7821      	ldrb	r1, [r4, #0]
    11dc:	f001 f8ee 	bl	23bc <DbgConsole_Printf>
    11e0:	7820      	ldrb	r0, [r4, #0]
    11e2:	1e83      	subs	r3, r0, #2
    11e4:	4258      	negs	r0, r3
    11e6:	4158      	adcs	r0, r3
    11e8:	bd10      	pop	{r4, pc}
    11ea:	bf00      	nop
    11ec:	040146f8 	.word	0x040146f8
    11f0:	00028324 	.word	0x00028324

000011f4 <APP_vInitialiseTasks>:
    11f4:	b508      	push	{r3, lr}
    11f6:	4b0b      	ldr	r3, [pc, #44]	; (1224 <APP_vInitialiseTasks+0x30>)
    11f8:	480b      	ldr	r0, [pc, #44]	; (1228 <APP_vInitialiseTasks+0x34>)
    11fa:	6f19      	ldr	r1, [r3, #112]	; 0x70
    11fc:	f001 f8de 	bl	23bc <DbgConsole_Printf>
    1200:	f7ff ffe8 	bl	11d4 <APP_bNodeIsInRunningState>
    1204:	b148      	cbz	r0, 121a <APP_vInitialiseTasks+0x26>
    1206:	4809      	ldr	r0, [pc, #36]	; (122c <APP_vInitialiseTasks+0x38>)
    1208:	f001 f8d8 	bl	23bc <DbgConsole_Printf>
    120c:	f000 fbfc 	bl	1a08 <vActionOnButtonActivationAfterDeepSleep>
    1210:	e8bd 4008 	ldmia.w	sp!, {r3, lr}
    1214:	4806      	ldr	r0, [pc, #24]	; (1230 <APP_vInitialiseTasks+0x3c>)
    1216:	f001 b8d1 	b.w	23bc <DbgConsole_Printf>
    121a:	4806      	ldr	r0, [pc, #24]	; (1234 <APP_vInitialiseTasks+0x40>)
    121c:	f001 f8ce 	bl	23bc <DbgConsole_Printf>
    1220:	e7f6      	b.n	1210 <APP_vInitialiseTasks+0x1c>
    1222:	bf00      	nop
    1224:	40012000 	.word	0x40012000
    1228:	0002834b 	.word	0x0002834b
    122c:	00028382 	.word	0x00028382
    1230:	00028401 	.word	0x00028401
    1234:	000283d6 	.word	0x000283d6

00001238 <APP_vInitialiseNode>:
    1238:	e92d 41f3 	stmdb	sp!, {r0, r1, r4, r5, r6, r7, r8, lr}
    123c:	485a      	ldr	r0, [pc, #360]	; (13a8 <APP_vInitialiseNode+0x170>)
    123e:	4d5b      	ldr	r5, [pc, #364]	; (13ac <APP_vInitialiseNode+0x174>)
    1240:	4c5b      	ldr	r4, [pc, #364]	; (13b0 <APP_vInitialiseNode+0x178>)
    1242:	f001 f8bb 	bl	23bc <DbgConsole_Printf>
    1246:	f7ff fb8d 	bl	964 <eRestoreReports>
    124a:	f10d 0302 	add.w	r3, sp, #2
    124e:	2202      	movs	r2, #2
    1250:	4629      	mov	r1, r5
    1252:	4606      	mov	r6, r0
    1254:	2001      	movs	r0, #1
    1256:	f00d f8e9 	bl	e42c <PDM_eReadDataFromRecord>
    125a:	2200      	movs	r2, #0
    125c:	2300      	movs	r3, #0
    125e:	e9c4 2300 	strd	r2, r3, [r4]
    1262:	f04f 0801 	mov.w	r8, #1
    1266:	f10d 0302 	add.w	r3, sp, #2
    126a:	2218      	movs	r2, #24
    126c:	4621      	mov	r1, r4
    126e:	2700      	movs	r7, #0
    1270:	200c      	movs	r0, #12
    1272:	f8c4 800c 	str.w	r8, [r4, #12]
    1276:	7427      	strb	r7, [r4, #16]
    1278:	f00d f8d8 	bl	e42c <PDM_eReadDataFromRecord>
    127c:	e9d4 2c00 	ldrd	r2, ip, [r4]
    1280:	494c      	ldr	r1, [pc, #304]	; (13b4 <APP_vInitialiseNode+0x17c>)
    1282:	68e0      	ldr	r0, [r4, #12]
    1284:	f8c1 02f4 	str.w	r0, [r1, #756]	; 0x2f4
    1288:	e9c1 2cb6 	strd	r2, ip, [r1, #728]	; 0x2d8
    128c:	fba0 2302 	umull	r2, r3, r0, r2
    1290:	fb00 330c 	mla	r3, r0, ip, r3
    1294:	e9c1 23ba 	strd	r2, r3, [r1, #744]	; 0x2e8
    1298:	4640      	mov	r0, r8
    129a:	7c23      	ldrb	r3, [r4, #16]
    129c:	f881 32f1 	strb.w	r3, [r1, #753]	; 0x2f1
    12a0:	f7ff f9ba 	bl	618 <APP_vRadioTempUpdate>
    12a4:	f7ff fb22 	bl	8ec <ZPS_pvAplZdoGetAplHandle>
    12a8:	4641      	mov	r1, r8
    12aa:	f00f f993 	bl	105d4 <zps_eAplAfInit>
    12ae:	782b      	ldrb	r3, [r5, #0]
    12b0:	2b02      	cmp	r3, #2
    12b2:	d120      	bne.n	12f6 <APP_vInitialiseNode+0xbe>
    12b4:	f018 ffaf 	bl	1a216 <ZPS_u16MacPibGetPanId>
    12b8:	f64f 73ff 	movw	r3, #65535	; 0xffff
    12bc:	4298      	cmp	r0, r3
    12be:	d11a      	bne.n	12f6 <APP_vInitialiseNode+0xbe>
    12c0:	f7ff fb14 	bl	8ec <ZPS_pvAplZdoGetAplHandle>
    12c4:	f012 fdaf 	bl	13e26 <zps_psAplAibGetAib>
    12c8:	e9d0 2302 	ldrd	r2, r3, [r0, #8]
    12cc:	4313      	orrs	r3, r2
    12ce:	d012      	beq.n	12f6 <APP_vInitialiseNode+0xbe>
    12d0:	f7ff fb0c 	bl	8ec <ZPS_pvAplZdoGetAplHandle>
    12d4:	f013 fc06 	bl	14ae4 <zps_pvAplZdoGetNwkHandle>
    12d8:	4604      	mov	r4, r0
    12da:	f7ff fb07 	bl	8ec <ZPS_pvAplZdoGetAplHandle>
    12de:	f012 fda2 	bl	13e26 <zps_psAplAibGetAib>
    12e2:	e9d0 2302 	ldrd	r2, r3, [r0, #8]
    12e6:	4620      	mov	r0, r4
    12e8:	f01c fa02 	bl	1d6f0 <ZPS_vNwkNibSetExtPanId>
    12ec:	f7ff fafe 	bl	8ec <ZPS_pvAplZdoGetAplHandle>
    12f0:	4639      	mov	r1, r7
    12f2:	f00f f96f 	bl	105d4 <zps_eAplAfInit>
    12f6:	4830      	ldr	r0, [pc, #192]	; (13b8 <APP_vInitialiseNode+0x180>)
    12f8:	f001 f860 	bl	23bc <DbgConsole_Printf>
    12fc:	f000 f9ca 	bl	1694 <APP_ZCL_vInitialise>
    1300:	f7ff faf4 	bl	8ec <ZPS_pvAplZdoGetAplHandle>
    1304:	210e      	movs	r1, #14
    1306:	f00f faa1 	bl	1084c <zps_bAplAfSetEndDeviceTimeout>
    130a:	b10e      	cbz	r6, 1310 <APP_vInitialiseNode+0xd8>
    130c:	f7ff fb84 	bl	a18 <vLoadDefaultConfigForReportable>
    1310:	4c2a      	ldr	r4, [pc, #168]	; (13bc <APP_vInitialiseNode+0x184>)
    1312:	f8df 80d4 	ldr.w	r8, [pc, #212]	; 13e8 <APP_vInitialiseNode+0x1b0>
    1316:	4f2a      	ldr	r7, [pc, #168]	; (13c0 <APP_vInitialiseNode+0x188>)
    1318:	f7ff fb38 	bl	98c <vMakeSupportedAttributesReportable>
    131c:	4b29      	ldr	r3, [pc, #164]	; (13c4 <APP_vInitialiseNode+0x18c>)
    131e:	9301      	str	r3, [sp, #4]
    1320:	a801      	add	r0, sp, #4
    1322:	f8c4 802c 	str.w	r8, [r4, #44]	; 0x2c
    1326:	6367      	str	r7, [r4, #52]	; 0x34
    1328:	f00a ff02 	bl	c130 <BDB_vInit>
    132c:	f7ff ff52 	bl	11d4 <APP_bNodeIsInRunningState>
    1330:	4606      	mov	r6, r0
    1332:	b338      	cbz	r0, 1384 <APP_vInitialiseNode+0x14c>
    1334:	4824      	ldr	r0, [pc, #144]	; (13c8 <APP_vInitialiseNode+0x190>)
    1336:	f001 f841 	bl	23bc <DbgConsole_Printf>
    133a:	f7ff fad7 	bl	8ec <ZPS_pvAplZdoGetAplHandle>
    133e:	f013 f8ad 	bl	1449c <zps_vSaveAllZpsRecords>
    1342:	2301      	movs	r3, #1
    1344:	f884 302a 	strb.w	r3, [r4, #42]	; 0x2a
    1348:	f000 fafe 	bl	1948 <APP_bButtonInitialise>
    134c:	f7ff f950 	bl	5f0 <APP_vGetVoltageBattery>
    1350:	2001      	movs	r0, #1
    1352:	f7ff f961 	bl	618 <APP_vRadioTempUpdate>
    1356:	4b1d      	ldr	r3, [pc, #116]	; (13cc <APP_vInitialiseNode+0x194>)
    1358:	2101      	movs	r1, #1
    135a:	2005      	movs	r0, #5
    135c:	7019      	strb	r1, [r3, #0]
    135e:	f000 fbc3 	bl	1ae8 <u32WakeTimerSecondsToTicks>
    1362:	4b1b      	ldr	r3, [pc, #108]	; (13d0 <APP_vInitialiseNode+0x198>)
    1364:	4601      	mov	r1, r0
    1366:	6018      	str	r0, [r3, #0]
    1368:	481a      	ldr	r0, [pc, #104]	; (13d4 <APP_vInitialiseNode+0x19c>)
    136a:	f001 f827 	bl	23bc <DbgConsole_Printf>
    136e:	481a      	ldr	r0, [pc, #104]	; (13d8 <APP_vInitialiseNode+0x1a0>)
    1370:	f001 f824 	bl	23bc <DbgConsole_Printf>
    1374:	f7ff ff3e 	bl	11f4 <APP_vInitialiseTasks>
    1378:	4818      	ldr	r0, [pc, #96]	; (13dc <APP_vInitialiseNode+0x1a4>)
    137a:	f001 f81f 	bl	23bc <DbgConsole_Printf>
    137e:	b002      	add	sp, #8
    1380:	e8bd 81f0 	ldmia.w	sp!, {r4, r5, r6, r7, r8, pc}
    1384:	4816      	ldr	r0, [pc, #88]	; (13e0 <APP_vInitialiseNode+0x1a8>)
    1386:	f001 f819 	bl	23bc <DbgConsole_Printf>
    138a:	2301      	movs	r3, #1
    138c:	4815      	ldr	r0, [pc, #84]	; (13e4 <APP_vInitialiseNode+0x1ac>)
    138e:	f8c4 802c 	str.w	r8, [r4, #44]	; 0x2c
    1392:	6367      	str	r7, [r4, #52]	; 0x34
    1394:	702b      	strb	r3, [r5, #0]
    1396:	f001 f811 	bl	23bc <DbgConsole_Printf>
    139a:	2032      	movs	r0, #50	; 0x32
    139c:	f884 602a 	strb.w	r6, [r4, #42]	; 0x2a
    13a0:	f000 ff40 	bl	2224 <vStartBlinkTimer>
    13a4:	e7d0      	b.n	1348 <APP_vInitialiseNode+0x110>
    13a6:	bf00      	nop
    13a8:	00028425 	.word	0x00028425
    13ac:	040146f8 	.word	0x040146f8
    13b0:	040146e0 	.word	0x040146e0
    13b4:	04014350 	.word	0x04014350
    13b8:	00028449 	.word	0x00028449
    13bc:	04015950 	.word	0x04015950
    13c0:	05ef7000 	.word	0x05ef7000
    13c4:	04012a64 	.word	0x04012a64
    13c8:	0002847b 	.word	0x0002847b
    13cc:	040146da 	.word	0x040146da
    13d0:	040146fc 	.word	0x040146fc
    13d4:	0002851f 	.word	0x0002851f
    13d8:	00028541 	.word	0x00028541
    13dc:	00028579 	.word	0x00028579
    13e0:	000284ad 	.word	0x000284ad
    13e4:	000284e9 	.word	0x000284e9
    13e8:	02108800 	.word	0x02108800

000013ec <APP_ZCL_cbGeneralCallback>:
    13ec:	7803      	ldrb	r3, [r0, #0]
    13ee:	3b02      	subs	r3, #2
    13f0:	2b08      	cmp	r3, #8
    13f2:	d815      	bhi.n	1420 <APP_ZCL_cbGeneralCallback+0x34>
    13f4:	e8df f003 	tbb	[pc, r3]
    13f8:	0a081405 	.word	0x0a081405
    13fc:	10160e0c 	.word	0x10160e0c
    1400:	12          	.byte	0x12
    1401:	00          	.byte	0x00
    1402:	4809      	ldr	r0, [pc, #36]	; (1428 <APP_ZCL_cbGeneralCallback+0x3c>)
    1404:	f000 bfda 	b.w	23bc <DbgConsole_Printf>
    1408:	4808      	ldr	r0, [pc, #32]	; (142c <APP_ZCL_cbGeneralCallback+0x40>)
    140a:	e7fb      	b.n	1404 <APP_ZCL_cbGeneralCallback+0x18>
    140c:	4808      	ldr	r0, [pc, #32]	; (1430 <APP_ZCL_cbGeneralCallback+0x44>)
    140e:	e7f9      	b.n	1404 <APP_ZCL_cbGeneralCallback+0x18>
    1410:	4808      	ldr	r0, [pc, #32]	; (1434 <APP_ZCL_cbGeneralCallback+0x48>)
    1412:	e7f7      	b.n	1404 <APP_ZCL_cbGeneralCallback+0x18>
    1414:	4808      	ldr	r0, [pc, #32]	; (1438 <APP_ZCL_cbGeneralCallback+0x4c>)
    1416:	e7f5      	b.n	1404 <APP_ZCL_cbGeneralCallback+0x18>
    1418:	4808      	ldr	r0, [pc, #32]	; (143c <APP_ZCL_cbGeneralCallback+0x50>)
    141a:	e7f3      	b.n	1404 <APP_ZCL_cbGeneralCallback+0x18>
    141c:	4808      	ldr	r0, [pc, #32]	; (1440 <APP_ZCL_cbGeneralCallback+0x54>)
    141e:	e7f1      	b.n	1404 <APP_ZCL_cbGeneralCallback+0x18>
    1420:	4808      	ldr	r0, [pc, #32]	; (1444 <APP_ZCL_cbGeneralCallback+0x58>)
    1422:	e7ef      	b.n	1404 <APP_ZCL_cbGeneralCallback+0x18>
    1424:	4770      	bx	lr
    1426:	bf00      	nop
    1428:	0002859c 	.word	0x0002859c
    142c:	000285b7 	.word	0x000285b7
    1430:	000285db 	.word	0x000285db
    1434:	000285f3 	.word	0x000285f3
    1438:	0002860f 	.word	0x0002860f
    143c:	00028620 	.word	0x00028620
    1440:	00028632 	.word	0x00028632
    1444:	00028647 	.word	0x00028647

00001448 <APP_ZCL_cbEndpointCallback>:
    1448:	b573      	push	{r0, r1, r4, r5, r6, lr}
    144a:	4604      	mov	r4, r0
    144c:	7801      	ldrb	r1, [r0, #0]
    144e:	4877      	ldr	r0, [pc, #476]	; (162c <APP_ZCL_cbEndpointCallback+0x1e4>)
    1450:	f000 ffb4 	bl	23bc <DbgConsole_Printf>
    1454:	7823      	ldrb	r3, [r4, #0]
    1456:	3b02      	subs	r3, #2
    1458:	2b19      	cmp	r3, #25
    145a:	f200 80e4 	bhi.w	1626 <APP_ZCL_cbEndpointCallback+0x1de>
    145e:	e8df f013 	tbh	[pc, r3, lsl #1]
    1462:	0061      	.short	0x0061
    1464:	00610065 	.word	0x00610065
    1468:	00610061 	.word	0x00610061
    146c:	00610061 	.word	0x00610061
    1470:	006c0061 	.word	0x006c0061
    1474:	00ca00ca 	.word	0x00ca00ca
    1478:	00e200e2 	.word	0x00e200e2
    147c:	00e200e2 	.word	0x00e200e2
    1480:	00e200e2 	.word	0x00e200e2
    1484:	00e200e2 	.word	0x00e200e2
    1488:	00e2001a 	.word	0x00e2001a
    148c:	00e200e2 	.word	0x00e200e2
    1490:	00e200e2 	.word	0x00e200e2
    1494:	00bc      	.short	0x00bc
    1496:	6ae3      	ldr	r3, [r4, #44]	; 0x2c
    1498:	4865      	ldr	r0, [pc, #404]	; (1630 <APP_ZCL_cbEndpointCallback+0x1e8>)
    149a:	685b      	ldr	r3, [r3, #4]
    149c:	8819      	ldrh	r1, [r3, #0]
    149e:	f000 ff8d 	bl	23bc <DbgConsole_Printf>
    14a2:	7a61      	ldrb	r1, [r4, #9]
    14a4:	4863      	ldr	r0, [pc, #396]	; (1634 <APP_ZCL_cbEndpointCallback+0x1ec>)
    14a6:	f000 ff89 	bl	23bc <DbgConsole_Printf>
    14aa:	8961      	ldrh	r1, [r4, #10]
    14ac:	4862      	ldr	r0, [pc, #392]	; (1638 <APP_ZCL_cbEndpointCallback+0x1f0>)
    14ae:	f000 ff85 	bl	23bc <DbgConsole_Printf>
    14b2:	89e1      	ldrh	r1, [r4, #14]
    14b4:	4861      	ldr	r0, [pc, #388]	; (163c <APP_ZCL_cbEndpointCallback+0x1f4>)
    14b6:	f000 ff81 	bl	23bc <DbgConsole_Printf>
    14ba:	89a1      	ldrh	r1, [r4, #12]
    14bc:	4860      	ldr	r0, [pc, #384]	; (1640 <APP_ZCL_cbEndpointCallback+0x1f8>)
    14be:	f000 ff7d 	bl	23bc <DbgConsole_Printf>
    14c2:	8a21      	ldrh	r1, [r4, #16]
    14c4:	485f      	ldr	r0, [pc, #380]	; (1644 <APP_ZCL_cbEndpointCallback+0x1fc>)
    14c6:	f000 ff79 	bl	23bc <DbgConsole_Printf>
    14ca:	f104 0508 	add.w	r5, r4, #8
    14ce:	7a21      	ldrb	r1, [r4, #8]
    14d0:	485d      	ldr	r0, [pc, #372]	; (1648 <APP_ZCL_cbEndpointCallback+0x200>)
    14d2:	f000 ff73 	bl	23bc <DbgConsole_Printf>
    14d6:	e9d5 2304 	ldrd	r2, r3, [r5, #16]
    14da:	485c      	ldr	r0, [pc, #368]	; (164c <APP_ZCL_cbEndpointCallback+0x204>)
    14dc:	f000 ff6e 	bl	23bc <DbgConsole_Printf>
    14e0:	78e1      	ldrb	r1, [r4, #3]
    14e2:	485b      	ldr	r0, [pc, #364]	; (1650 <APP_ZCL_cbEndpointCallback+0x208>)
    14e4:	f000 ff6a 	bl	23bc <DbgConsole_Printf>
    14e8:	78e3      	ldrb	r3, [r4, #3]
    14ea:	b9cb      	cbnz	r3, 1520 <APP_ZCL_cbEndpointCallback+0xd8>
    14ec:	6ae3      	ldr	r3, [r4, #44]	; 0x2c
    14ee:	685b      	ldr	r3, [r3, #4]
    14f0:	881e      	ldrh	r6, [r3, #0]
    14f2:	f240 7302 	movw	r3, #1794	; 0x702
    14f6:	429e      	cmp	r6, r3
    14f8:	d106      	bne.n	1508 <APP_ZCL_cbEndpointCallback+0xc0>
    14fa:	4856      	ldr	r0, [pc, #344]	; (1654 <APP_ZCL_cbEndpointCallback+0x20c>)
    14fc:	f000 ff5e 	bl	23bc <DbgConsole_Printf>
    1500:	4629      	mov	r1, r5
    1502:	4630      	mov	r0, r6
    1504:	f7ff faca 	bl	a9c <vSaveReportableRecord>
    1508:	6ae3      	ldr	r3, [r4, #44]	; 0x2c
    150a:	685b      	ldr	r3, [r3, #4]
    150c:	881c      	ldrh	r4, [r3, #0]
    150e:	2c01      	cmp	r4, #1
    1510:	d106      	bne.n	1520 <APP_ZCL_cbEndpointCallback+0xd8>
    1512:	4850      	ldr	r0, [pc, #320]	; (1654 <APP_ZCL_cbEndpointCallback+0x20c>)
    1514:	f000 ff52 	bl	23bc <DbgConsole_Printf>
    1518:	4629      	mov	r1, r5
    151a:	4620      	mov	r0, r4
    151c:	f7ff fabe 	bl	a9c <vSaveReportableRecord>
    1520:	b002      	add	sp, #8
    1522:	bd70      	pop	{r4, r5, r6, pc}
    1524:	484c      	ldr	r0, [pc, #304]	; (1658 <APP_ZCL_cbEndpointCallback+0x210>)
    1526:	f000 ff49 	bl	23bc <DbgConsole_Printf>
    152a:	e7f9      	b.n	1520 <APP_ZCL_cbEndpointCallback+0xd8>
    152c:	68e3      	ldr	r3, [r4, #12]
    152e:	7ae1      	ldrb	r1, [r4, #11]
    1530:	781a      	ldrb	r2, [r3, #0]
    1532:	484a      	ldr	r0, [pc, #296]	; (165c <APP_ZCL_cbEndpointCallback+0x214>)
    1534:	f000 ff42 	bl	23bc <DbgConsole_Printf>
    1538:	e7f2      	b.n	1520 <APP_ZCL_cbEndpointCallback+0xd8>
    153a:	8921      	ldrh	r1, [r4, #8]
    153c:	4848      	ldr	r0, [pc, #288]	; (1660 <APP_ZCL_cbEndpointCallback+0x218>)
    153e:	f000 ff3d 	bl	23bc <DbgConsole_Printf>
    1542:	8921      	ldrh	r1, [r4, #8]
    1544:	2904      	cmp	r1, #4
    1546:	d046      	beq.n	15d6 <APP_ZCL_cbEndpointCallback+0x18e>
    1548:	d806      	bhi.n	1558 <APP_ZCL_cbEndpointCallback+0x110>
    154a:	b151      	cbz	r1, 1562 <APP_ZCL_cbEndpointCallback+0x11a>
    154c:	2903      	cmp	r1, #3
    154e:	d01b      	beq.n	1588 <APP_ZCL_cbEndpointCallback+0x140>
    1550:	4844      	ldr	r0, [pc, #272]	; (1664 <APP_ZCL_cbEndpointCallback+0x21c>)
    1552:	f000 ff33 	bl	23bc <DbgConsole_Printf>
    1556:	e7e3      	b.n	1520 <APP_ZCL_cbEndpointCallback+0xd8>
    1558:	f5b1 5f80 	cmp.w	r1, #4096	; 0x1000
    155c:	d1f8      	bne.n	1550 <APP_ZCL_cbEndpointCallback+0x108>
    155e:	4842      	ldr	r0, [pc, #264]	; (1668 <APP_ZCL_cbEndpointCallback+0x220>)
    1560:	e7e1      	b.n	1526 <APP_ZCL_cbEndpointCallback+0xde>
    1562:	68e3      	ldr	r3, [r4, #12]
    1564:	781c      	ldrb	r4, [r3, #0]
    1566:	2c00      	cmp	r4, #0
    1568:	d1da      	bne.n	1520 <APP_ZCL_cbEndpointCallback+0xd8>
    156a:	4840      	ldr	r0, [pc, #256]	; (166c <APP_ZCL_cbEndpointCallback+0x224>)
    156c:	f000 ff26 	bl	23bc <DbgConsole_Printf>
    1570:	f44f 7262 	mov.w	r2, #904	; 0x388
    1574:	4621      	mov	r1, r4
    1576:	483e      	ldr	r0, [pc, #248]	; (1670 <APP_ZCL_cbEndpointCallback+0x228>)
    1578:	f025 fe44 	bl	27204 <memset>
    157c:	f7ff fc90 	bl	ea0 <vAPP_ZCL_DeviceSpecific_Init>
    1580:	483c      	ldr	r0, [pc, #240]	; (1674 <APP_ZCL_cbEndpointCallback+0x22c>)
    1582:	f7ff fc85 	bl	e90 <eApp_ZLO_RegisterEndpoint>
    1586:	e7cb      	b.n	1520 <APP_ZCL_cbEndpointCallback+0xd8>
    1588:	68e3      	ldr	r3, [r4, #12]
    158a:	781a      	ldrb	r2, [r3, #0]
    158c:	b9c2      	cbnz	r2, 15c0 <APP_ZCL_cbEndpointCallback+0x178>
    158e:	483a      	ldr	r0, [pc, #232]	; (1678 <APP_ZCL_cbEndpointCallback+0x230>)
    1590:	f000 ff14 	bl	23bc <DbgConsole_Printf>
    1594:	6ae3      	ldr	r3, [r4, #44]	; 0x2c
    1596:	781b      	ldrb	r3, [r3, #0]
    1598:	b953      	cbnz	r3, 15b0 <APP_ZCL_cbEndpointCallback+0x168>
    159a:	4838      	ldr	r0, [pc, #224]	; (167c <APP_ZCL_cbEndpointCallback+0x234>)
    159c:	f000 ff0e 	bl	23bc <DbgConsole_Printf>
    15a0:	2308      	movs	r3, #8
    15a2:	4668      	mov	r0, sp
    15a4:	f88d 3000 	strb.w	r3, [sp]
    15a8:	9401      	str	r4, [sp, #4]
    15aa:	f00b f8b1 	bl	c710 <BDB_vZclEventHandler>
    15ae:	e7b7      	b.n	1520 <APP_ZCL_cbEndpointCallback+0xd8>
    15b0:	4b2f      	ldr	r3, [pc, #188]	; (1670 <APP_ZCL_cbEndpointCallback+0x228>)
    15b2:	f8b3 31ac 	ldrh.w	r3, [r3, #428]	; 0x1ac
    15b6:	2b00      	cmp	r3, #0
    15b8:	d1b2      	bne.n	1520 <APP_ZCL_cbEndpointCallback+0xd8>
    15ba:	f000 fe3f 	bl	223c <vStopBlinkTimer>
    15be:	e7af      	b.n	1520 <APP_ZCL_cbEndpointCallback+0xd8>
    15c0:	2a40      	cmp	r2, #64	; 0x40
    15c2:	d1ad      	bne.n	1520 <APP_ZCL_cbEndpointCallback+0xd8>
    15c4:	6ae2      	ldr	r2, [r4, #44]	; 0x2c
    15c6:	7812      	ldrb	r2, [r2, #0]
    15c8:	2a00      	cmp	r2, #0
    15ca:	d0a9      	beq.n	1520 <APP_ZCL_cbEndpointCallback+0xd8>
    15cc:	685b      	ldr	r3, [r3, #4]
    15ce:	482c      	ldr	r0, [pc, #176]	; (1680 <APP_ZCL_cbEndpointCallback+0x238>)
    15d0:	785a      	ldrb	r2, [r3, #1]
    15d2:	7819      	ldrb	r1, [r3, #0]
    15d4:	e7ae      	b.n	1534 <APP_ZCL_cbEndpointCallback+0xec>
    15d6:	482b      	ldr	r0, [pc, #172]	; (1684 <APP_ZCL_cbEndpointCallback+0x23c>)
    15d8:	e7a5      	b.n	1526 <APP_ZCL_cbEndpointCallback+0xde>
    15da:	6ae3      	ldr	r3, [r4, #44]	; 0x2c
    15dc:	482a      	ldr	r0, [pc, #168]	; (1688 <APP_ZCL_cbEndpointCallback+0x240>)
    15de:	685b      	ldr	r3, [r3, #4]
    15e0:	8819      	ldrh	r1, [r3, #0]
    15e2:	f000 feeb 	bl	23bc <DbgConsole_Printf>
    15e6:	6ae3      	ldr	r3, [r4, #44]	; 0x2c
    15e8:	685b      	ldr	r3, [r3, #4]
    15ea:	881b      	ldrh	r3, [r3, #0]
    15ec:	2b03      	cmp	r3, #3
    15ee:	d197      	bne.n	1520 <APP_ZCL_cbEndpointCallback+0xd8>
    15f0:	f7ff fc8e 	bl	f10 <vAPP_ZCL_DeviceSpecific_UpdateIdentify>
    15f4:	e794      	b.n	1520 <APP_ZCL_cbEndpointCallback+0xd8>
    15f6:	6ae3      	ldr	r3, [r4, #44]	; 0x2c
    15f8:	685b      	ldr	r3, [r3, #4]
    15fa:	881a      	ldrh	r2, [r3, #0]
    15fc:	f240 7302 	movw	r3, #1794	; 0x702
    1600:	429a      	cmp	r2, r3
    1602:	d18d      	bne.n	1520 <APP_ZCL_cbEndpointCallback+0xd8>
    1604:	491a      	ldr	r1, [pc, #104]	; (1670 <APP_ZCL_cbEndpointCallback+0x228>)
    1606:	4b21      	ldr	r3, [pc, #132]	; (168c <APP_ZCL_cbEndpointCallback+0x244>)
    1608:	f891 22f1 	ldrb.w	r2, [r1, #753]	; 0x2f1
    160c:	741a      	strb	r2, [r3, #16]
    160e:	e9d3 2400 	ldrd	r2, r4, [r3]
    1612:	f8d1 02f4 	ldr.w	r0, [r1, #756]	; 0x2f4
    1616:	60d8      	str	r0, [r3, #12]
    1618:	fba2 2300 	umull	r2, r3, r2, r0
    161c:	fb00 3304 	mla	r3, r0, r4, r3
    1620:	e9c1 23ba 	strd	r2, r3, [r1, #744]	; 0x2e8
    1624:	e77c      	b.n	1520 <APP_ZCL_cbEndpointCallback+0xd8>
    1626:	481a      	ldr	r0, [pc, #104]	; (1690 <APP_ZCL_cbEndpointCallback+0x248>)
    1628:	e77d      	b.n	1526 <APP_ZCL_cbEndpointCallback+0xde>
    162a:	bf00      	nop
    162c:	00028661 	.word	0x00028661
    1630:	00028674 	.word	0x00028674
    1634:	000286ab 	.word	0x000286ab
    1638:	000286ca 	.word	0x000286ca
    163c:	000286e7 	.word	0x000286e7
    1640:	0002870f 	.word	0x0002870f
    1644:	00028737 	.word	0x00028737
    1648:	00028759 	.word	0x00028759
    164c:	0002877b 	.word	0x0002877b
    1650:	000287a2 	.word	0x000287a2
    1654:	000287ba 	.word	0x000287ba
    1658:	000287d7 	.word	0x000287d7
    165c:	000287ef 	.word	0x000287ef
    1660:	0002880f 	.word	0x0002880f
    1664:	000288d7 	.word	0x000288d7
    1668:	000288c3 	.word	0x000288c3
    166c:	0002882a 	.word	0x0002882a
    1670:	04014350 	.word	0x04014350
    1674:	00001449 	.word	0x00001449
    1678:	0002884e 	.word	0x0002884e
    167c:	00028874 	.word	0x00028874
    1680:	00028887 	.word	0x00028887
    1684:	000288a9 	.word	0x000288a9
    1688:	000288f5 	.word	0x000288f5
    168c:	040146e0 	.word	0x040146e0
    1690:	0002890b 	.word	0x0002890b

00001694 <APP_ZCL_vInitialise>:
    1694:	490f      	ldr	r1, [pc, #60]	; (16d4 <APP_ZCL_vInitialise+0x40>)
    1696:	4810      	ldr	r0, [pc, #64]	; (16d8 <APP_ZCL_vInitialise+0x44>)
    1698:	b508      	push	{r3, lr}
    169a:	f008 fb77 	bl	9d8c <eZCL_Initialise>
    169e:	4601      	mov	r1, r0
    16a0:	b110      	cbz	r0, 16a8 <APP_ZCL_vInitialise+0x14>
    16a2:	480e      	ldr	r0, [pc, #56]	; (16dc <APP_ZCL_vInitialise+0x48>)
    16a4:	f000 fe8a 	bl	23bc <DbgConsole_Printf>
    16a8:	480d      	ldr	r0, [pc, #52]	; (16e0 <APP_ZCL_vInitialise+0x4c>)
    16aa:	f7ff fbf1 	bl	e90 <eApp_ZLO_RegisterEndpoint>
    16ae:	4601      	mov	r1, r0
    16b0:	b110      	cbz	r0, 16b8 <APP_ZCL_vInitialise+0x24>
    16b2:	480c      	ldr	r0, [pc, #48]	; (16e4 <APP_ZCL_vInitialise+0x50>)
    16b4:	f000 fe82 	bl	23bc <DbgConsole_Printf>
    16b8:	480b      	ldr	r0, [pc, #44]	; (16e8 <APP_ZCL_vInitialise+0x54>)
    16ba:	f000 fe7f 	bl	23bc <DbgConsole_Printf>
    16be:	4b0b      	ldr	r3, [pc, #44]	; (16ec <APP_ZCL_vInitialise+0x58>)
    16c0:	f44f 717a 	mov.w	r1, #1000	; 0x3e8
    16c4:	7818      	ldrb	r0, [r3, #0]
    16c6:	f001 fbe7 	bl	2e98 <ZTIMER_eStart>
    16ca:	e8bd 4008 	ldmia.w	sp!, {r3, lr}
    16ce:	f7ff bbe7 	b.w	ea0 <vAPP_ZCL_DeviceSpecific_Init>
    16d2:	bf00      	nop
    16d4:	0401249c 	.word	0x0401249c
    16d8:	000013ed 	.word	0x000013ed
    16dc:	0002892c 	.word	0x0002892c
    16e0:	00001449 	.word	0x00001449
    16e4:	00028955 	.word	0x00028955
    16e8:	00028981 	.word	0x00028981
    16ec:	04012b19 	.word	0x04012b19

000016f0 <APP_ZCL_vEventHandler>:
    16f0:	b500      	push	{lr}
    16f2:	b08d      	sub	sp, #52	; 0x34
    16f4:	2309      	movs	r3, #9
    16f6:	900a      	str	r0, [sp, #40]	; 0x28
    16f8:	4668      	mov	r0, sp
    16fa:	f88d 3000 	strb.w	r3, [sp]
    16fe:	f008 fea7 	bl	a450 <vZCL_EventHandler>
    1702:	b00d      	add	sp, #52	; 0x34
    1704:	f85d fb04 	ldr.w	pc, [sp], #4

00001708 <vAPP_ZCL_Tick>:
    1708:	b500      	push	{lr}
    170a:	b09b      	sub	sp, #108	; 0x6c
    170c:	ab0c      	add	r3, sp, #48	; 0x30
    170e:	930a      	str	r3, [sp, #40]	; 0x28
    1710:	f000 fd44 	bl	219c <vDecrementTickCount>
    1714:	2308      	movs	r3, #8
    1716:	4668      	mov	r0, sp
    1718:	f88d 3000 	strb.w	r3, [sp]
    171c:	f008 fe98 	bl	a450 <vZCL_EventHandler>
    1720:	b01b      	add	sp, #108	; 0x6c
    1722:	f85d fb04 	ldr.w	pc, [sp], #4
    1726:	Address 0x00001726 is out of bounds.


00001728 <APP_cbTimerZclTick>:
    1728:	b510      	push	{r4, lr}
    172a:	4824      	ldr	r0, [pc, #144]	; (17bc <APP_cbTimerZclTick+0x94>)
    172c:	f000 fe46 	bl	23bc <DbgConsole_Printf>
    1730:	f7ff ffea 	bl	1708 <vAPP_ZCL_Tick>
    1734:	4b22      	ldr	r3, [pc, #136]	; (17c0 <APP_cbTimerZclTick+0x98>)
    1736:	f44f 717a 	mov.w	r1, #1000	; 0x3e8
    173a:	7818      	ldrb	r0, [r3, #0]
    173c:	f001 fbac 	bl	2e98 <ZTIMER_eStart>
    1740:	2000      	movs	r0, #0
    1742:	f003 fc73 	bl	502c <WTIMER_GetStatusFlags>
    1746:	4604      	mov	r4, r0
    1748:	4601      	mov	r1, r0
    174a:	481e      	ldr	r0, [pc, #120]	; (17c4 <APP_cbTimerZclTick+0x9c>)
    174c:	f000 fe36 	bl	23bc <DbgConsole_Printf>
    1750:	2c01      	cmp	r4, #1
    1752:	d10b      	bne.n	176c <APP_cbTimerZclTick+0x44>
    1754:	2000      	movs	r0, #0
    1756:	f003 fcd3 	bl	5100 <WTIMER_ReadTimer>
    175a:	4604      	mov	r4, r0
    175c:	f000 f9be 	bl	1adc <u32GetWakeTimerCalibration>
    1760:	4621      	mov	r1, r4
    1762:	fbb4 f2f0 	udiv	r2, r4, r0
    1766:	4818      	ldr	r0, [pc, #96]	; (17c8 <APP_cbTimerZclTick+0xa0>)
    1768:	f000 fe28 	bl	23bc <DbgConsole_Printf>
    176c:	2001      	movs	r0, #1
    176e:	f003 fc5d 	bl	502c <WTIMER_GetStatusFlags>
    1772:	4604      	mov	r4, r0
    1774:	4601      	mov	r1, r0
    1776:	4815      	ldr	r0, [pc, #84]	; (17cc <APP_cbTimerZclTick+0xa4>)
    1778:	f000 fe20 	bl	23bc <DbgConsole_Printf>
    177c:	2c01      	cmp	r4, #1
    177e:	d10b      	bne.n	1798 <APP_cbTimerZclTick+0x70>
    1780:	4620      	mov	r0, r4
    1782:	f003 fcbd 	bl	5100 <WTIMER_ReadTimer>
    1786:	4604      	mov	r4, r0
    1788:	f000 f9a8 	bl	1adc <u32GetWakeTimerCalibration>
    178c:	4621      	mov	r1, r4
    178e:	fbb4 f2f0 	udiv	r2, r4, r0
    1792:	480d      	ldr	r0, [pc, #52]	; (17c8 <APP_cbTimerZclTick+0xa0>)
    1794:	f000 fe12 	bl	23bc <DbgConsole_Printf>
    1798:	4c0d      	ldr	r4, [pc, #52]	; (17d0 <APP_cbTimerZclTick+0xa8>)
    179a:	4a0e      	ldr	r2, [pc, #56]	; (17d4 <APP_cbTimerZclTick+0xac>)
    179c:	6823      	ldr	r3, [r4, #0]
    179e:	3364      	adds	r3, #100	; 0x64
    17a0:	4293      	cmp	r3, r2
    17a2:	6023      	str	r3, [r4, #0]
    17a4:	d908      	bls.n	17b8 <APP_cbTimerZclTick+0x90>
    17a6:	480c      	ldr	r0, [pc, #48]	; (17d8 <APP_cbTimerZclTick+0xb0>)
    17a8:	f000 fe08 	bl	23bc <DbgConsole_Printf>
    17ac:	2000      	movs	r0, #0
    17ae:	6020      	str	r0, [r4, #0]
    17b0:	e8bd 4010 	ldmia.w	sp!, {r4, lr}
    17b4:	f7fe bf30 	b.w	618 <APP_vRadioTempUpdate>
    17b8:	bd10      	pop	{r4, pc}
    17ba:	bf00      	nop
    17bc:	00028995 	.word	0x00028995
    17c0:	04012b19 	.word	0x04012b19
    17c4:	000289c0 	.word	0x000289c0
    17c8:	00027bcd 	.word	0x00027bcd
    17cc:	000289ee 	.word	0x000289ee
    17d0:	04014704 	.word	0x04014704
    17d4:	000493df 	.word	0x000493df
    17d8:	00028a1c 	.word	0x00028a1c

000017dc <gint_callback>:
    17dc:	4b0a      	ldr	r3, [pc, #40]	; (1808 <gint_callback+0x2c>)
    17de:	480b      	ldr	r0, [pc, #44]	; (180c <gint_callback+0x30>)
    17e0:	6819      	ldr	r1, [r3, #0]
    17e2:	b510      	push	{r4, lr}
    17e4:	f001 0103 	and.w	r1, r1, #3
    17e8:	4c09      	ldr	r4, [pc, #36]	; (1810 <gint_callback+0x34>)
    17ea:	f000 fde7 	bl	23bc <DbgConsole_Printf>
    17ee:	4809      	ldr	r0, [pc, #36]	; (1814 <gint_callback+0x38>)
    17f0:	f000 fe6e 	bl	24d0 <GINT_DisableCallback>
    17f4:	7820      	ldrb	r0, [r4, #0]
    17f6:	f001 fb79 	bl	2eec <ZTIMER_eStop>
    17fa:	7820      	ldrb	r0, [r4, #0]
    17fc:	210a      	movs	r1, #10
    17fe:	e8bd 4010 	ldmia.w	sp!, {r4, lr}
    1802:	f001 bb49 	b.w	2e98 <ZTIMER_eStart>
    1806:	bf00      	nop
    1808:	40082100 	.word	0x40082100
    180c:	00028a2a 	.word	0x00028a2a
    1810:	04012b16 	.word	0x04012b16
    1814:	40011000 	.word	0x40011000

00001818 <APP_cbTimerButtonScan>:
    1818:	e92d 4ff0 	stmdb	sp!, {r4, r5, r6, r7, r8, r9, sl, fp, lr}
    181c:	4b3d      	ldr	r3, [pc, #244]	; (1914 <APP_cbTimerButtonScan+0xfc>)
    181e:	f8df 9118 	ldr.w	r9, [pc, #280]	; 1938 <APP_cbTimerButtonScan+0x120>
    1822:	681b      	ldr	r3, [r3, #0]
    1824:	f8df 8114 	ldr.w	r8, [pc, #276]	; 193c <APP_cbTimerButtonScan+0x124>
    1828:	4d3b      	ldr	r5, [pc, #236]	; (1918 <APP_cbTimerButtonScan+0x100>)
    182a:	4e3c      	ldr	r6, [pc, #240]	; (191c <APP_cbTimerButtonScan+0x104>)
    182c:	f8df a110 	ldr.w	sl, [pc, #272]	; 1940 <APP_cbTimerButtonScan+0x128>
    1830:	f8df b110 	ldr.w	fp, [pc, #272]	; 1944 <APP_cbTimerButtonScan+0x12c>
    1834:	b087      	sub	sp, #28
    1836:	f003 0303 	and.w	r3, r3, #3
    183a:	9301      	str	r3, [sp, #4]
    183c:	2400      	movs	r4, #0
    183e:	27ff      	movs	r7, #255	; 0xff
    1840:	f819 3b01 	ldrb.w	r3, [r9], #1
    1844:	9901      	ldr	r1, [sp, #4]
    1846:	f898 2000 	ldrb.w	r2, [r8]
    184a:	fa21 f303 	lsr.w	r3, r1, r3
    184e:	f003 0301 	and.w	r3, r3, #1
    1852:	ea43 0342 	orr.w	r3, r3, r2, lsl #1
    1856:	b2db      	uxtb	r3, r3
    1858:	f808 3b01 	strb.w	r3, [r8], #1
    185c:	401f      	ands	r7, r3
    185e:	bb6b      	cbnz	r3, 18bc <APP_cbTimerButtonScan+0xa4>
    1860:	782b      	ldrb	r3, [r5, #0]
    1862:	b9bb      	cbnz	r3, 1894 <APP_cbTimerButtonScan+0x7c>
    1864:	2301      	movs	r3, #1
    1866:	702b      	strb	r3, [r5, #0]
    1868:	2302      	movs	r3, #2
    186a:	f88d 300c 	strb.w	r3, [sp, #12]
    186e:	f88d 4010 	strb.w	r4, [sp, #16]
    1872:	f006 fabb 	bl	7dec <OSA_TimeGetMsec>
    1876:	4621      	mov	r1, r4
    1878:	6030      	str	r0, [r6, #0]
    187a:	4829      	ldr	r0, [pc, #164]	; (1920 <APP_cbTimerButtonScan+0x108>)
    187c:	f000 fd9e 	bl	23bc <DbgConsole_Printf>
    1880:	4828      	ldr	r0, [pc, #160]	; (1924 <APP_cbTimerButtonScan+0x10c>)
    1882:	a903      	add	r1, sp, #12
    1884:	f001 fa3b 	bl	2cfe <ZQ_bQueueSend>
    1888:	b920      	cbnz	r0, 1894 <APP_cbTimerButtonScan+0x7c>
    188a:	f89d 100c 	ldrb.w	r1, [sp, #12]
    188e:	4826      	ldr	r0, [pc, #152]	; (1928 <APP_cbTimerButtonScan+0x110>)
    1890:	f000 fd94 	bl	23bc <DbgConsole_Printf>
    1894:	3501      	adds	r5, #1
    1896:	b17c      	cbz	r4, 18b8 <APP_cbTimerButtonScan+0xa0>
    1898:	2fff      	cmp	r7, #255	; 0xff
    189a:	4c24      	ldr	r4, [pc, #144]	; (192c <APP_cbTimerButtonScan+0x114>)
    189c:	d131      	bne.n	1902 <APP_cbTimerButtonScan+0xea>
    189e:	2102      	movs	r1, #2
    18a0:	4823      	ldr	r0, [pc, #140]	; (1930 <APP_cbTimerButtonScan+0x118>)
    18a2:	f000 fd8b 	bl	23bc <DbgConsole_Printf>
    18a6:	4823      	ldr	r0, [pc, #140]	; (1934 <APP_cbTimerButtonScan+0x11c>)
    18a8:	f000 fe02 	bl	24b0 <GINT_EnableCallback>
    18ac:	7820      	ldrb	r0, [r4, #0]
    18ae:	f001 fb1d 	bl	2eec <ZTIMER_eStop>
    18b2:	b007      	add	sp, #28
    18b4:	e8bd 8ff0 	ldmia.w	sp!, {r4, r5, r6, r7, r8, r9, sl, fp, pc}
    18b8:	2401      	movs	r4, #1
    18ba:	e7c1      	b.n	1840 <APP_cbTimerButtonScan+0x28>
    18bc:	2bff      	cmp	r3, #255	; 0xff
    18be:	d1e9      	bne.n	1894 <APP_cbTimerButtonScan+0x7c>
    18c0:	782b      	ldrb	r3, [r5, #0]
    18c2:	2b00      	cmp	r3, #0
    18c4:	d0e6      	beq.n	1894 <APP_cbTimerButtonScan+0x7c>
    18c6:	2300      	movs	r3, #0
    18c8:	702b      	strb	r3, [r5, #0]
    18ca:	f006 fa8f 	bl	7dec <OSA_TimeGetMsec>
    18ce:	6831      	ldr	r1, [r6, #0]
    18d0:	1a41      	subs	r1, r0, r1
    18d2:	4650      	mov	r0, sl
    18d4:	6031      	str	r1, [r6, #0]
    18d6:	f000 fd71 	bl	23bc <DbgConsole_Printf>
    18da:	6832      	ldr	r2, [r6, #0]
    18dc:	f241 3387 	movw	r3, #4999	; 0x1387
    18e0:	429a      	cmp	r2, r3
    18e2:	d90c      	bls.n	18fe <APP_cbTimerButtonScan+0xe6>
    18e4:	2c01      	cmp	r4, #1
    18e6:	bf0c      	ite	eq
    18e8:	220b      	moveq	r2, #11
    18ea:	2201      	movne	r2, #1
    18ec:	4621      	mov	r1, r4
    18ee:	4658      	mov	r0, fp
    18f0:	f88d 200c 	strb.w	r2, [sp, #12]
    18f4:	f88d 4010 	strb.w	r4, [sp, #16]
    18f8:	f000 fd60 	bl	23bc <DbgConsole_Printf>
    18fc:	e7c0      	b.n	1880 <APP_cbTimerButtonScan+0x68>
    18fe:	2201      	movs	r2, #1
    1900:	e7f4      	b.n	18ec <APP_cbTimerButtonScan+0xd4>
    1902:	7820      	ldrb	r0, [r4, #0]
    1904:	f001 faf2 	bl	2eec <ZTIMER_eStop>
    1908:	7820      	ldrb	r0, [r4, #0]
    190a:	210a      	movs	r1, #10
    190c:	f001 fac4 	bl	2e98 <ZTIMER_eStart>
    1910:	e7cf      	b.n	18b2 <APP_cbTimerButtonScan+0x9a>
    1912:	bf00      	nop
    1914:	40082100 	.word	0x40082100
    1918:	04014709 	.word	0x04014709
    191c:	0401470c 	.word	0x0401470c
    1920:	00028a51 	.word	0x00028a51
    1924:	04012a54 	.word	0x04012a54
    1928:	00028a60 	.word	0x00028a60
    192c:	04012b16 	.word	0x04012b16
    1930:	00028ad8 	.word	0x00028ad8
    1934:	40011000 	.word	0x40011000
    1938:	00028bd5 	.word	0x00028bd5
    193c:	04012878 	.word	0x04012878
    1940:	00028a83 	.word	0x00028a83
    1944:	00028abf 	.word	0x00028abf

00001948 <APP_bButtonInitialise>:
    1948:	b573      	push	{r0, r1, r4, r5, r6, lr}
    194a:	4d25      	ldr	r5, [pc, #148]	; (19e0 <APP_bButtonInitialise+0x98>)
    194c:	4825      	ldr	r0, [pc, #148]	; (19e4 <APP_bButtonInitialise+0x9c>)
    194e:	2400      	movs	r4, #0
    1950:	2680      	movs	r6, #128	; 0x80
    1952:	f000 fd33 	bl	23bc <DbgConsole_Printf>
    1956:	f8ad 4004 	strh.w	r4, [sp, #4]
    195a:	ab01      	add	r3, sp, #4
    195c:	4621      	mov	r1, r4
    195e:	4822      	ldr	r0, [pc, #136]	; (19e8 <APP_bButtonInitialise+0xa0>)
    1960:	606e      	str	r6, [r5, #4]
    1962:	2201      	movs	r2, #1
    1964:	f000 fd4a 	bl	23fc <GPIO_PinInit>
    1968:	ab01      	add	r3, sp, #4
    196a:	4622      	mov	r2, r4
    196c:	4621      	mov	r1, r4
    196e:	481e      	ldr	r0, [pc, #120]	; (19e8 <APP_bButtonInitialise+0xa0>)
    1970:	602e      	str	r6, [r5, #0]
    1972:	f000 fd43 	bl	23fc <GPIO_PinInit>
    1976:	481d      	ldr	r0, [pc, #116]	; (19ec <APP_bButtonInitialise+0xa4>)
    1978:	f000 fd6c 	bl	2454 <GINT_Init>
    197c:	4622      	mov	r2, r4
    197e:	4621      	mov	r1, r4
    1980:	4b1b      	ldr	r3, [pc, #108]	; (19f0 <APP_bButtonInitialise+0xa8>)
    1982:	481a      	ldr	r0, [pc, #104]	; (19ec <APP_bButtonInitialise+0xa4>)
    1984:	f000 fd78 	bl	2478 <GINT_SetCtrl>
    1988:	4621      	mov	r1, r4
    198a:	4622      	mov	r2, r4
    198c:	2303      	movs	r3, #3
    198e:	4817      	ldr	r0, [pc, #92]	; (19ec <APP_bButtonInitialise+0xa4>)
    1990:	f000 fd88 	bl	24a4 <GINT_ConfigPins>
    1994:	4815      	ldr	r0, [pc, #84]	; (19ec <APP_bButtonInitialise+0xa4>)
    1996:	f000 fd8b 	bl	24b0 <GINT_EnableCallback>
    199a:	4a16      	ldr	r2, [pc, #88]	; (19f4 <APP_bButtonInitialise+0xac>)
    199c:	f8d2 3088 	ldr.w	r3, [r2, #136]	; 0x88
    19a0:	f003 437e 	and.w	r3, r3, #4261412864	; 0xfe000000
    19a4:	f1b3 4f2a 	cmp.w	r3, #2852126720	; 0xaa000000
    19a8:	bf08      	it	eq
    19aa:	f8d2 1088 	ldreq.w	r1, [r2, #136]	; 0x88
    19ae:	4b12      	ldr	r3, [pc, #72]	; (19f8 <APP_bButtonInitialise+0xb0>)
    19b0:	bf0b      	itete	eq
    19b2:	4812      	ldreq	r0, [pc, #72]	; (19fc <APP_bButtonInitialise+0xb4>)
    19b4:	4812      	ldrne	r0, [pc, #72]	; (1a00 <APP_bButtonInitialise+0xb8>)
    19b6:	f021 417e 	biceq.w	r1, r1, #4261412864	; 0xfe000000
    19ba:	2103      	movne	r1, #3
    19bc:	bf0c      	ite	eq
    19be:	6019      	streq	r1, [r3, #0]
    19c0:	6019      	strne	r1, [r3, #0]
    19c2:	f000 fcfb 	bl	23bc <DbgConsole_Printf>
    19c6:	2000      	movs	r0, #0
    19c8:	f7ff ff26 	bl	1818 <APP_cbTimerButtonScan>
    19cc:	4b0d      	ldr	r3, [pc, #52]	; (1a04 <APP_bButtonInitialise+0xbc>)
    19ce:	6818      	ldr	r0, [r3, #0]
    19d0:	f000 0003 	and.w	r0, r0, #3
    19d4:	3803      	subs	r0, #3
    19d6:	bf18      	it	ne
    19d8:	2001      	movne	r0, #1
    19da:	b002      	add	sp, #8
    19dc:	bd70      	pop	{r4, r5, r6, pc}
    19de:	bf00      	nop
    19e0:	4000f000 	.word	0x4000f000
    19e4:	00028ae1 	.word	0x00028ae1
    19e8:	40080000 	.word	0x40080000
    19ec:	40011000 	.word	0x40011000
    19f0:	000017dd 	.word	0x000017dd
    19f4:	40012000 	.word	0x40012000
    19f8:	0401287c 	.word	0x0401287c
    19fc:	00028b03 	.word	0x00028b03
    1a00:	00028b2d 	.word	0x00028b2d
    1a04:	40082100 	.word	0x40082100

00001a08 <vActionOnButtonActivationAfterDeepSleep>:
    1a08:	b510      	push	{r4, lr}
    1a0a:	480a      	ldr	r0, [pc, #40]	; (1a34 <vActionOnButtonActivationAfterDeepSleep+0x2c>)
    1a0c:	4c0a      	ldr	r4, [pc, #40]	; (1a38 <vActionOnButtonActivationAfterDeepSleep+0x30>)
    1a0e:	f000 fcd5 	bl	23bc <DbgConsole_Printf>
    1a12:	480a      	ldr	r0, [pc, #40]	; (1a3c <vActionOnButtonActivationAfterDeepSleep+0x34>)
    1a14:	f000 fd5c 	bl	24d0 <GINT_DisableCallback>
    1a18:	7820      	ldrb	r0, [r4, #0]
    1a1a:	f001 fa67 	bl	2eec <ZTIMER_eStop>
    1a1e:	7820      	ldrb	r0, [r4, #0]
    1a20:	210a      	movs	r1, #10
    1a22:	f001 fa39 	bl	2e98 <ZTIMER_eStart>
    1a26:	e8bd 4010 	ldmia.w	sp!, {r4, lr}
    1a2a:	4601      	mov	r1, r0
    1a2c:	4804      	ldr	r0, [pc, #16]	; (1a40 <vActionOnButtonActivationAfterDeepSleep+0x38>)
    1a2e:	f000 bcc5 	b.w	23bc <DbgConsole_Printf>
    1a32:	bf00      	nop
    1a34:	00028b5a 	.word	0x00028b5a
    1a38:	04012b16 	.word	0x04012b16
    1a3c:	40011000 	.word	0x40011000
    1a40:	00028b8e 	.word	0x00028b8e

00001a44 <vSaveDioStateBeforeDeepSleep>:
    1a44:	4b04      	ldr	r3, [pc, #16]	; (1a58 <vSaveDioStateBeforeDeepSleep+0x14>)
    1a46:	4805      	ldr	r0, [pc, #20]	; (1a5c <vSaveDioStateBeforeDeepSleep+0x18>)
    1a48:	6819      	ldr	r1, [r3, #0]
    1a4a:	4b05      	ldr	r3, [pc, #20]	; (1a60 <vSaveDioStateBeforeDeepSleep+0x1c>)
    1a4c:	f041 422a 	orr.w	r2, r1, #2852126720	; 0xaa000000
    1a50:	f8c3 2088 	str.w	r2, [r3, #136]	; 0x88
    1a54:	f000 bcb2 	b.w	23bc <DbgConsole_Printf>
    1a58:	0401287c 	.word	0x0401287c
    1a5c:	00028bab 	.word	0x00028bab
    1a60:	40012000 	.word	0x40012000

00001a64 <bButtonDebounceInProgress>:
    1a64:	4b01      	ldr	r3, [pc, #4]	; (1a6c <bButtonDebounceInProgress+0x8>)
    1a66:	7818      	ldrb	r0, [r3, #0]
    1a68:	4770      	bx	lr
    1a6a:	bf00      	nop
    1a6c:	04014708 	.word	0x04014708

00001a70 <vAppHandleRunning>:
    1a70:	b510      	push	{r4, lr}
    1a72:	4604      	mov	r4, r0
    1a74:	7801      	ldrb	r1, [r0, #0]
    1a76:	4811      	ldr	r0, [pc, #68]	; (1abc <vAppHandleRunning+0x4c>)
    1a78:	f000 fca0 	bl	23bc <DbgConsole_Printf>
    1a7c:	7823      	ldrb	r3, [r4, #0]
    1a7e:	3b06      	subs	r3, #6
    1a80:	2b09      	cmp	r3, #9
    1a82:	d819      	bhi.n	1ab8 <vAppHandleRunning+0x48>
    1a84:	e8df f003 	tbb	[pc, r3]
    1a88:	18181805 	.word	0x18181805
    1a8c:	18130918 	.word	0x18130918
    1a90:	0e18      	.short	0x0e18
    1a92:	e8bd 4010 	ldmia.w	sp!, {r4, lr}
    1a96:	f000 ba17 	b.w	1ec8 <vHandleNetworkJoinEndDevice>
    1a9a:	4620      	mov	r0, r4
    1a9c:	e8bd 4010 	ldmia.w	sp!, {r4, lr}
    1aa0:	f000 ba34 	b.w	1f0c <vHandleNetworkLeave>
    1aa4:	4620      	mov	r0, r4
    1aa6:	e8bd 4010 	ldmia.w	sp!, {r4, lr}
    1aaa:	f000 b9c1 	b.w	1e30 <vHandlePollResponse>
    1aae:	4620      	mov	r0, r4
    1ab0:	e8bd 4010 	ldmia.w	sp!, {r4, lr}
    1ab4:	f000 ba60 	b.w	1f78 <vHandleNetworkLeaveConfirm>
    1ab8:	bd10      	pop	{r4, pc}
    1aba:	bf00      	nop
    1abc:	00028bd7 	.word	0x00028bd7

00001ac0 <vAppHandleStartup>:
    1ac0:	b508      	push	{r3, lr}
    1ac2:	4804      	ldr	r0, [pc, #16]	; (1ad4 <vAppHandleStartup+0x14>)
    1ac4:	f000 fc7a 	bl	23bc <DbgConsole_Printf>
    1ac8:	f00b f800 	bl	cacc <BDB_eNsStartNwkSteering>
    1acc:	4b02      	ldr	r3, [pc, #8]	; (1ad8 <vAppHandleStartup+0x18>)
    1ace:	2201      	movs	r2, #1
    1ad0:	701a      	strb	r2, [r3, #0]
    1ad2:	bd08      	pop	{r3, pc}
    1ad4:	00028bf6 	.word	0x00028bf6
    1ad8:	040146f8 	.word	0x040146f8

00001adc <u32GetWakeTimerCalibration>:
    1adc:	4b01      	ldr	r3, [pc, #4]	; (1ae4 <u32GetWakeTimerCalibration+0x8>)
    1ade:	6818      	ldr	r0, [r3, #0]
    1ae0:	4770      	bx	lr
    1ae2:	bf00      	nop
    1ae4:	04012880 	.word	0x04012880

00001ae8 <u32WakeTimerSecondsToTicks>:
    1ae8:	b573      	push	{r0, r1, r4, r5, r6, lr}
    1aea:	4e0a      	ldr	r6, [pc, #40]	; (1b14 <u32WakeTimerSecondsToTicks+0x2c>)
    1aec:	4604      	mov	r4, r0
    1aee:	460d      	mov	r5, r1
    1af0:	b119      	cbz	r1, 1afa <u32WakeTimerSecondsToTicks+0x12>
    1af2:	f004 ff71 	bl	69d8 <PWR_GetHk32kHandle>
    1af6:	6803      	ldr	r3, [r0, #0]
    1af8:	6033      	str	r3, [r6, #0]
    1afa:	6833      	ldr	r3, [r6, #0]
    1afc:	4806      	ldr	r0, [pc, #24]	; (1b18 <u32WakeTimerSecondsToTicks+0x30>)
    1afe:	fb04 f603 	mul.w	r6, r4, r3
    1b02:	9600      	str	r6, [sp, #0]
    1b04:	462a      	mov	r2, r5
    1b06:	4621      	mov	r1, r4
    1b08:	f000 fc58 	bl	23bc <DbgConsole_Printf>
    1b0c:	4630      	mov	r0, r6
    1b0e:	b002      	add	sp, #8
    1b10:	bd70      	pop	{r4, r5, r6, pc}
    1b12:	bf00      	nop
    1b14:	04012880 	.word	0x04012880
    1b18:	00028c13 	.word	0x00028c13

00001b1c <vStartWakeTimer>:
    1b1c:	b510      	push	{r4, lr}
    1b1e:	4604      	mov	r4, r0
    1b20:	2000      	movs	r0, #0
    1b22:	f003 fb25 	bl	5170 <WTIMER_StopTimer>
    1b26:	4b09      	ldr	r3, [pc, #36]	; (1b4c <vStartWakeTimer+0x30>)
    1b28:	4809      	ldr	r0, [pc, #36]	; (1b50 <vStartWakeTimer+0x34>)
    1b2a:	681a      	ldr	r2, [r3, #0]
    1b2c:	fbb4 f2f2 	udiv	r2, r4, r2
    1b30:	4621      	mov	r1, r4
    1b32:	f000 fc43 	bl	23bc <DbgConsole_Printf>
    1b36:	2000      	movs	r0, #0
    1b38:	f003 fa8e 	bl	5058 <WTIMER_EnableInterrupts>
    1b3c:	f003 fa60 	bl	5000 <WTIMER_Init>
    1b40:	4621      	mov	r1, r4
    1b42:	2000      	movs	r0, #0
    1b44:	e8bd 4010 	ldmia.w	sp!, {r4, lr}
    1b48:	f003 baa6 	b.w	5098 <WTIMER_StartTimer>
    1b4c:	04012880 	.word	0x04012880
    1b50:	00028c49 	.word	0x00028c49

00001b54 <WAKE_UP_TIMER0_IRQHandler>:
    1b54:	b51f      	push	{r0, r1, r2, r3, r4, lr}
    1b56:	2000      	movs	r0, #0
    1b58:	f003 fb0a 	bl	5170 <WTIMER_StopTimer>
    1b5c:	2000      	movs	r0, #0
    1b5e:	f003 fae9 	bl	5134 <WTIMER_ClearStatusFlags>
    1b62:	2305      	movs	r3, #5
    1b64:	a901      	add	r1, sp, #4
    1b66:	4804      	ldr	r0, [pc, #16]	; (1b78 <WAKE_UP_TIMER0_IRQHandler+0x24>)
    1b68:	f88d 3004 	strb.w	r3, [sp, #4]
    1b6c:	f001 f8c7 	bl	2cfe <ZQ_bQueueSend>
    1b70:	b005      	add	sp, #20
    1b72:	f85d fb04 	ldr.w	pc, [sp], #4
    1b76:	bf00      	nop
    1b78:	04012a54 	.word	0x04012a54

00001b7c <u8NumberOfNonSleepPreventingTimers>:
    1b7c:	b510      	push	{r4, lr}
    1b7e:	4b15      	ldr	r3, [pc, #84]	; (1bd4 <u8NumberOfNonSleepPreventingTimers+0x58>)
    1b80:	7818      	ldrb	r0, [r3, #0]
    1b82:	f001 f9d9 	bl	2f38 <ZTIMER_eGetState>
    1b86:	1e83      	subs	r3, r0, #2
    1b88:	425c      	negs	r4, r3
    1b8a:	415c      	adcs	r4, r3
    1b8c:	4b12      	ldr	r3, [pc, #72]	; (1bd8 <u8NumberOfNonSleepPreventingTimers+0x5c>)
    1b8e:	7818      	ldrb	r0, [r3, #0]
    1b90:	f001 f9d2 	bl	2f38 <ZTIMER_eGetState>
    1b94:	4b11      	ldr	r3, [pc, #68]	; (1bdc <u8NumberOfNonSleepPreventingTimers+0x60>)
    1b96:	2802      	cmp	r0, #2
    1b98:	7818      	ldrb	r0, [r3, #0]
    1b9a:	bf08      	it	eq
    1b9c:	3401      	addeq	r4, #1
    1b9e:	f001 f9cb 	bl	2f38 <ZTIMER_eGetState>
    1ba2:	4b0f      	ldr	r3, [pc, #60]	; (1be0 <u8NumberOfNonSleepPreventingTimers+0x64>)
    1ba4:	2802      	cmp	r0, #2
    1ba6:	bf08      	it	eq
    1ba8:	3401      	addeq	r4, #1
    1baa:	7818      	ldrb	r0, [r3, #0]
    1bac:	bf08      	it	eq
    1bae:	b2e4      	uxtbeq	r4, r4
    1bb0:	f001 f9c2 	bl	2f38 <ZTIMER_eGetState>
    1bb4:	4b0b      	ldr	r3, [pc, #44]	; (1be4 <u8NumberOfNonSleepPreventingTimers+0x68>)
    1bb6:	2802      	cmp	r0, #2
    1bb8:	bf08      	it	eq
    1bba:	3401      	addeq	r4, #1
    1bbc:	7818      	ldrb	r0, [r3, #0]
    1bbe:	bf08      	it	eq
    1bc0:	b2e4      	uxtbeq	r4, r4
    1bc2:	f001 f9b9 	bl	2f38 <ZTIMER_eGetState>
    1bc6:	2802      	cmp	r0, #2
    1bc8:	bf04      	itt	eq
    1bca:	3401      	addeq	r4, #1
    1bcc:	b2e4      	uxtbeq	r4, r4
    1bce:	4620      	mov	r0, r4
    1bd0:	bd10      	pop	{r4, pc}
    1bd2:	bf00      	nop
    1bd4:	04012b19 	.word	0x04012b19
    1bd8:	04012b17 	.word	0x04012b17
    1bdc:	04012b15 	.word	0x04012b15
    1be0:	04012b18 	.word	0x04012b18
    1be4:	04012b16 	.word	0x04012b16

00001be8 <u8NumberOfTimersTaskTimers>:
    1be8:	b510      	push	{r4, lr}
    1bea:	f7ff ff3b 	bl	1a64 <bButtonDebounceInProgress>
    1bee:	4604      	mov	r4, r0
    1bf0:	b118      	cbz	r0, 1bfa <u8NumberOfTimersTaskTimers+0x12>
    1bf2:	480e      	ldr	r0, [pc, #56]	; (1c2c <u8NumberOfTimersTaskTimers+0x44>)
    1bf4:	f000 fbe2 	bl	23bc <DbgConsole_Printf>
    1bf8:	2401      	movs	r4, #1
    1bfa:	4b0d      	ldr	r3, [pc, #52]	; (1c30 <u8NumberOfTimersTaskTimers+0x48>)
    1bfc:	7818      	ldrb	r0, [r3, #0]
    1bfe:	f001 f99b 	bl	2f38 <ZTIMER_eGetState>
    1c02:	2802      	cmp	r0, #2
    1c04:	d104      	bne.n	1c10 <u8NumberOfTimersTaskTimers+0x28>
    1c06:	480b      	ldr	r0, [pc, #44]	; (1c34 <u8NumberOfTimersTaskTimers+0x4c>)
    1c08:	f000 fbd8 	bl	23bc <DbgConsole_Printf>
    1c0c:	3401      	adds	r4, #1
    1c0e:	b2e4      	uxtb	r4, r4
    1c10:	4b09      	ldr	r3, [pc, #36]	; (1c38 <u8NumberOfTimersTaskTimers+0x50>)
    1c12:	7818      	ldrb	r0, [r3, #0]
    1c14:	f001 f990 	bl	2f38 <ZTIMER_eGetState>
    1c18:	2802      	cmp	r0, #2
    1c1a:	d104      	bne.n	1c26 <u8NumberOfTimersTaskTimers+0x3e>
    1c1c:	4807      	ldr	r0, [pc, #28]	; (1c3c <u8NumberOfTimersTaskTimers+0x54>)
    1c1e:	f000 fbcd 	bl	23bc <DbgConsole_Printf>
    1c22:	3401      	adds	r4, #1
    1c24:	b2e4      	uxtb	r4, r4
    1c26:	4620      	mov	r0, r4
    1c28:	bd10      	pop	{r4, pc}
    1c2a:	bf00      	nop
    1c2c:	00028c6d 	.word	0x00028c6d
    1c30:	04012b18 	.word	0x04012b18
    1c34:	00028c84 	.word	0x00028c84
    1c38:	04012b15 	.word	0x04012b15
    1c3c:	00028c99 	.word	0x00028c99

00001c40 <vWakeCallBack>:
    1c40:	b51f      	push	{r0, r1, r2, r3, r4, lr}
    1c42:	4c14      	ldr	r4, [pc, #80]	; (1c94 <vWakeCallBack+0x54>)
    1c44:	4814      	ldr	r0, [pc, #80]	; (1c98 <vWakeCallBack+0x58>)
    1c46:	f000 fbb9 	bl	23bc <DbgConsole_Printf>
    1c4a:	7820      	ldrb	r0, [r4, #0]
    1c4c:	f001 f974 	bl	2f38 <ZTIMER_eGetState>
    1c50:	2802      	cmp	r0, #2
    1c52:	d004      	beq.n	1c5e <vWakeCallBack+0x1e>
    1c54:	7820      	ldrb	r0, [r4, #0]
    1c56:	f44f 717a 	mov.w	r1, #1000	; 0x3e8
    1c5a:	f001 f91d 	bl	2e98 <ZTIMER_eStart>
    1c5e:	4a0f      	ldr	r2, [pc, #60]	; (1c9c <vWakeCallBack+0x5c>)
    1c60:	8813      	ldrh	r3, [r2, #0]
    1c62:	3301      	adds	r3, #1
    1c64:	b29b      	uxth	r3, r3
    1c66:	2b77      	cmp	r3, #119	; 0x77
    1c68:	d802      	bhi.n	1c70 <vWakeCallBack+0x30>
    1c6a:	8013      	strh	r3, [r2, #0]
    1c6c:	b004      	add	sp, #16
    1c6e:	bd10      	pop	{r4, pc}
    1c70:	2300      	movs	r3, #0
    1c72:	8013      	strh	r3, [r2, #0]
    1c74:	2304      	movs	r3, #4
    1c76:	480a      	ldr	r0, [pc, #40]	; (1ca0 <vWakeCallBack+0x60>)
    1c78:	f88d 3004 	strb.w	r3, [sp, #4]
    1c7c:	eb0d 0103 	add.w	r1, sp, r3
    1c80:	f001 f83d 	bl	2cfe <ZQ_bQueueSend>
    1c84:	2800      	cmp	r0, #0
    1c86:	d1f1      	bne.n	1c6c <vWakeCallBack+0x2c>
    1c88:	f89d 1004 	ldrb.w	r1, [sp, #4]
    1c8c:	4805      	ldr	r0, [pc, #20]	; (1ca4 <vWakeCallBack+0x64>)
    1c8e:	f000 fb95 	bl	23bc <DbgConsole_Printf>
    1c92:	e7eb      	b.n	1c6c <vWakeCallBack+0x2c>
    1c94:	04012b19 	.word	0x04012b19
    1c98:	00028cb5 	.word	0x00028cb5
    1c9c:	04014720 	.word	0x04014720
    1ca0:	04012a54 	.word	0x04012a54
    1ca4:	00028cce 	.word	0x00028cce

00001ca8 <vAttemptToSleep>:
    1ca8:	b538      	push	{r3, r4, r5, lr}
    1caa:	4b33      	ldr	r3, [pc, #204]	; (1d78 <vAttemptToSleep+0xd0>)
    1cac:	781d      	ldrb	r5, [r3, #0]
    1cae:	f7ff ff65 	bl	1b7c <u8NumberOfNonSleepPreventingTimers>
    1cb2:	4604      	mov	r4, r0
    1cb4:	f7ff ff98 	bl	1be8 <u8NumberOfTimersTaskTimers>
    1cb8:	4622      	mov	r2, r4
    1cba:	4603      	mov	r3, r0
    1cbc:	4629      	mov	r1, r5
    1cbe:	482f      	ldr	r0, [pc, #188]	; (1d7c <vAttemptToSleep+0xd4>)
    1cc0:	f000 fb7c 	bl	23bc <DbgConsole_Printf>
    1cc4:	f7ff ff5a 	bl	1b7c <u8NumberOfNonSleepPreventingTimers>
    1cc8:	2801      	cmp	r0, #1
    1cca:	d854      	bhi.n	1d76 <vAttemptToSleep+0xce>
    1ccc:	f7ff ff8c 	bl	1be8 <u8NumberOfTimersTaskTimers>
    1cd0:	2800      	cmp	r0, #0
    1cd2:	d150      	bne.n	1d76 <vAttemptToSleep+0xce>
    1cd4:	4c2a      	ldr	r4, [pc, #168]	; (1d80 <vAttemptToSleep+0xd8>)
    1cd6:	7820      	ldrb	r0, [r4, #0]
    1cd8:	f001 f92e 	bl	2f38 <ZTIMER_eGetState>
    1cdc:	2801      	cmp	r0, #1
    1cde:	d002      	beq.n	1ce6 <vAttemptToSleep+0x3e>
    1ce0:	7820      	ldrb	r0, [r4, #0]
    1ce2:	f001 f903 	bl	2eec <ZTIMER_eStop>
    1ce6:	4c27      	ldr	r4, [pc, #156]	; (1d84 <vAttemptToSleep+0xdc>)
    1ce8:	7820      	ldrb	r0, [r4, #0]
    1cea:	f001 f925 	bl	2f38 <ZTIMER_eGetState>
    1cee:	2801      	cmp	r0, #1
    1cf0:	d002      	beq.n	1cf8 <vAttemptToSleep+0x50>
    1cf2:	7820      	ldrb	r0, [r4, #0]
    1cf4:	f001 f8fa 	bl	2eec <ZTIMER_eStop>
    1cf8:	4c23      	ldr	r4, [pc, #140]	; (1d88 <vAttemptToSleep+0xe0>)
    1cfa:	7820      	ldrb	r0, [r4, #0]
    1cfc:	f001 f91c 	bl	2f38 <ZTIMER_eGetState>
    1d00:	2801      	cmp	r0, #1
    1d02:	d002      	beq.n	1d0a <vAttemptToSleep+0x62>
    1d04:	7820      	ldrb	r0, [r4, #0]
    1d06:	f001 f8f1 	bl	2eec <ZTIMER_eStop>
    1d0a:	4c20      	ldr	r4, [pc, #128]	; (1d8c <vAttemptToSleep+0xe4>)
    1d0c:	7820      	ldrb	r0, [r4, #0]
    1d0e:	f001 f913 	bl	2f38 <ZTIMER_eGetState>
    1d12:	2801      	cmp	r0, #1
    1d14:	d002      	beq.n	1d1c <vAttemptToSleep+0x74>
    1d16:	7820      	ldrb	r0, [r4, #0]
    1d18:	f001 f8e8 	bl	2eec <ZTIMER_eStop>
    1d1c:	4d1c      	ldr	r5, [pc, #112]	; (1d90 <vAttemptToSleep+0xe8>)
    1d1e:	481d      	ldr	r0, [pc, #116]	; (1d94 <vAttemptToSleep+0xec>)
    1d20:	f000 fb4c 	bl	23bc <DbgConsole_Printf>
    1d24:	2400      	movs	r4, #0
    1d26:	481c      	ldr	r0, [pc, #112]	; (1d98 <vAttemptToSleep+0xf0>)
    1d28:	702c      	strb	r4, [r5, #0]
    1d2a:	f000 fb47 	bl	23bc <DbgConsole_Printf>
    1d2e:	782b      	ldrb	r3, [r5, #0]
    1d30:	b1ab      	cbz	r3, 1d5e <vAttemptToSleep+0xb6>
    1d32:	2006      	movs	r0, #6
    1d34:	f004 fe72 	bl	6a1c <PWR_ChangeDeepSleepMode>
    1d38:	f004 fe92 	bl	6a60 <PWR_Init>
    1d3c:	4620      	mov	r0, r4
    1d3e:	f005 f8db 	bl	6ef8 <PWR_vForceRadioRetention>
    1d42:	4816      	ldr	r0, [pc, #88]	; (1d9c <vAttemptToSleep+0xf4>)
    1d44:	f000 fb3a 	bl	23bc <DbgConsole_Printf>
    1d48:	4815      	ldr	r0, [pc, #84]	; (1da0 <vAttemptToSleep+0xf8>)
    1d4a:	f000 fb37 	bl	23bc <DbgConsole_Printf>
    1d4e:	2101      	movs	r1, #1
    1d50:	203c      	movs	r0, #60	; 0x3c
    1d52:	f7ff fec9 	bl	1ae8 <u32WakeTimerSecondsToTicks>
    1d56:	e8bd 4038 	ldmia.w	sp!, {r3, r4, r5, lr}
    1d5a:	f7ff bedf 	b.w	1b1c <vStartWakeTimer>
    1d5e:	4a11      	ldr	r2, [pc, #68]	; (1da4 <vAttemptToSleep+0xfc>)
    1d60:	4811      	ldr	r0, [pc, #68]	; (1da8 <vAttemptToSleep+0x100>)
    1d62:	f64e 2160 	movw	r1, #60000	; 0xea60
    1d66:	f005 f8e9 	bl	6f3c <PWR_eScheduleActivity>
    1d6a:	f64e 2160 	movw	r1, #60000	; 0xea60
    1d6e:	480f      	ldr	r0, [pc, #60]	; (1dac <vAttemptToSleep+0x104>)
    1d70:	f000 fb24 	bl	23bc <DbgConsole_Printf>
    1d74:	e7e8      	b.n	1d48 <vAttemptToSleep+0xa0>
    1d76:	bd38      	pop	{r3, r4, r5, pc}
    1d78:	04015525 	.word	0x04015525
    1d7c:	00028cf1 	.word	0x00028cf1
    1d80:	04012b19 	.word	0x04012b19
    1d84:	04012b18 	.word	0x04012b18
    1d88:	04012b17 	.word	0x04012b17
    1d8c:	04012b15 	.word	0x04012b15
    1d90:	040146d9 	.word	0x040146d9
    1d94:	00028d5b 	.word	0x00028d5b
    1d98:	00028d75 	.word	0x00028d75
    1d9c:	00028d8f 	.word	0x00028d8f
    1da0:	00028de4 	.word	0x00028de4
    1da4:	00001c41 	.word	0x00001c41
    1da8:	04014710 	.word	0x04014710
    1dac:	00028dbe 	.word	0x00028dbe

00001db0 <vStartPollTimer>:
    1db0:	b538      	push	{r3, r4, r5, lr}
    1db2:	4d09      	ldr	r5, [pc, #36]	; (1dd8 <vStartPollTimer+0x28>)
    1db4:	4604      	mov	r4, r0
    1db6:	6028      	str	r0, [r5, #0]
    1db8:	f7fe fd98 	bl	8ec <ZPS_pvAplZdoGetAplHandle>
    1dbc:	f012 ff04 	bl	14bc8 <zps_eAplZdoPoll>
    1dc0:	4621      	mov	r1, r4
    1dc2:	4806      	ldr	r0, [pc, #24]	; (1ddc <vStartPollTimer+0x2c>)
    1dc4:	f000 fafa 	bl	23bc <DbgConsole_Printf>
    1dc8:	4b05      	ldr	r3, [pc, #20]	; (1de0 <vStartPollTimer+0x30>)
    1dca:	6829      	ldr	r1, [r5, #0]
    1dcc:	7818      	ldrb	r0, [r3, #0]
    1dce:	e8bd 4038 	ldmia.w	sp!, {r3, r4, r5, lr}
    1dd2:	f001 b861 	b.w	2e98 <ZTIMER_eStart>
    1dd6:	bf00      	nop
    1dd8:	04014724 	.word	0x04014724
    1ddc:	00028e4c 	.word	0x00028e4c
    1de0:	04012b18 	.word	0x04012b18

00001de4 <vStopPollTimerTask>:
    1de4:	b508      	push	{r3, lr}
    1de6:	4b06      	ldr	r3, [pc, #24]	; (1e00 <vStopPollTimerTask+0x1c>)
    1de8:	4806      	ldr	r0, [pc, #24]	; (1e04 <vStopPollTimerTask+0x20>)
    1dea:	2200      	movs	r2, #0
    1dec:	601a      	str	r2, [r3, #0]
    1dee:	f000 fae5 	bl	23bc <DbgConsole_Printf>
    1df2:	4b05      	ldr	r3, [pc, #20]	; (1e08 <vStopPollTimerTask+0x24>)
    1df4:	7818      	ldrb	r0, [r3, #0]
    1df6:	e8bd 4008 	ldmia.w	sp!, {r3, lr}
    1dfa:	f001 b877 	b.w	2eec <ZTIMER_eStop>
    1dfe:	bf00      	nop
    1e00:	04014724 	.word	0x04014724
    1e04:	00028e76 	.word	0x00028e76
    1e08:	04012b18 	.word	0x04012b18

00001e0c <APP_cbTimerPoll>:
    1e0c:	b508      	push	{r3, lr}
    1e0e:	f7fe fd6d 	bl	8ec <ZPS_pvAplZdoGetAplHandle>
    1e12:	f012 fed9 	bl	14bc8 <zps_eAplZdoPoll>
    1e16:	4b04      	ldr	r3, [pc, #16]	; (1e28 <APP_cbTimerPoll+0x1c>)
    1e18:	6819      	ldr	r1, [r3, #0]
    1e1a:	4b04      	ldr	r3, [pc, #16]	; (1e2c <APP_cbTimerPoll+0x20>)
    1e1c:	7818      	ldrb	r0, [r3, #0]
    1e1e:	e8bd 4008 	ldmia.w	sp!, {r3, lr}
    1e22:	f001 b839 	b.w	2e98 <ZTIMER_eStart>
    1e26:	bf00      	nop
    1e28:	04014724 	.word	0x04014724
    1e2c:	04012b18 	.word	0x04012b18

00001e30 <vHandlePollResponse>:
    1e30:	b510      	push	{r4, lr}
    1e32:	4604      	mov	r4, r0
    1e34:	480e      	ldr	r0, [pc, #56]	; (1e70 <vHandlePollResponse+0x40>)
    1e36:	f000 fac1 	bl	23bc <DbgConsole_Printf>
    1e3a:	7a23      	ldrb	r3, [r4, #8]
    1e3c:	b10b      	cbz	r3, 1e42 <vHandlePollResponse+0x12>
    1e3e:	2be9      	cmp	r3, #233	; 0xe9
    1e40:	d103      	bne.n	1e4a <vHandlePollResponse+0x1a>
    1e42:	f7fe fd53 	bl	8ec <ZPS_pvAplZdoGetAplHandle>
    1e46:	f012 febf 	bl	14bc8 <zps_eAplZdoPoll>
    1e4a:	4c0a      	ldr	r4, [pc, #40]	; (1e74 <vHandlePollResponse+0x44>)
    1e4c:	480a      	ldr	r0, [pc, #40]	; (1e78 <vHandlePollResponse+0x48>)
    1e4e:	6821      	ldr	r1, [r4, #0]
    1e50:	f000 fab4 	bl	23bc <DbgConsole_Printf>
    1e54:	6823      	ldr	r3, [r4, #0]
    1e56:	b93b      	cbnz	r3, 1e68 <vHandlePollResponse+0x38>
    1e58:	4a08      	ldr	r2, [pc, #32]	; (1e7c <vHandlePollResponse+0x4c>)
    1e5a:	7811      	ldrb	r1, [r2, #0]
    1e5c:	b131      	cbz	r1, 1e6c <vHandlePollResponse+0x3c>
    1e5e:	7013      	strb	r3, [r2, #0]
    1e60:	e8bd 4010 	ldmia.w	sp!, {r4, lr}
    1e64:	f7ff bfbe 	b.w	1de4 <vStopPollTimerTask>
    1e68:	3b01      	subs	r3, #1
    1e6a:	6023      	str	r3, [r4, #0]
    1e6c:	bd10      	pop	{r4, pc}
    1e6e:	bf00      	nop
    1e70:	00028e8f 	.word	0x00028e8f
    1e74:	040146fc 	.word	0x040146fc
    1e78:	00028eb5 	.word	0x00028eb5
    1e7c:	04012a51 	.word	0x04012a51

00001e80 <vHandleFailedToJoin>:
    1e80:	b508      	push	{r3, lr}
    1e82:	4806      	ldr	r0, [pc, #24]	; (1e9c <vHandleFailedToJoin+0x1c>)
    1e84:	f000 fa9a 	bl	23bc <DbgConsole_Printf>
    1e88:	f000 f910 	bl	20ac <vEventStopFindAndBind>
    1e8c:	4b04      	ldr	r3, [pc, #16]	; (1ea0 <vHandleFailedToJoin+0x20>)
    1e8e:	2200      	movs	r2, #0
    1e90:	701a      	strb	r2, [r3, #0]
    1e92:	4b04      	ldr	r3, [pc, #16]	; (1ea4 <vHandleFailedToJoin+0x24>)
    1e94:	2201      	movs	r2, #1
    1e96:	701a      	strb	r2, [r3, #0]
    1e98:	bd08      	pop	{r3, pc}
    1e9a:	bf00      	nop
    1e9c:	00028ed8 	.word	0x00028ed8
    1ea0:	04012a51 	.word	0x04012a51
    1ea4:	040146d8 	.word	0x040146d8

00001ea8 <vHandleFailedRejoin>:
    1ea8:	b508      	push	{r3, lr}
    1eaa:	4b06      	ldr	r3, [pc, #24]	; (1ec4 <vHandleFailedRejoin+0x1c>)
    1eac:	7818      	ldrb	r0, [r3, #0]
    1eae:	f001 f843 	bl	2f38 <ZTIMER_eGetState>
    1eb2:	2802      	cmp	r0, #2
    1eb4:	d005      	beq.n	1ec2 <vHandleFailedRejoin+0x1a>
    1eb6:	e8bd 4008 	ldmia.w	sp!, {r3, lr}
    1eba:	f44f 707a 	mov.w	r0, #1000	; 0x3e8
    1ebe:	f000 b9b1 	b.w	2224 <vStartBlinkTimer>
    1ec2:	bd08      	pop	{r3, pc}
    1ec4:	04012b15 	.word	0x04012b15

00001ec8 <vHandleNetworkJoinEndDevice>:
    1ec8:	b538      	push	{r3, r4, r5, lr}
    1eca:	480e      	ldr	r0, [pc, #56]	; (1f04 <vHandleNetworkJoinEndDevice+0x3c>)
    1ecc:	f000 fa76 	bl	23bc <DbgConsole_Printf>
    1ed0:	f7fe fd0c 	bl	8ec <ZPS_pvAplZdoGetAplHandle>
    1ed4:	f012 fe06 	bl	14ae4 <zps_pvAplZdoGetNwkHandle>
    1ed8:	f01b f89f 	bl	1d01a <ZPS_u64NwkNibGetEpid>
    1edc:	460c      	mov	r4, r1
    1ede:	4605      	mov	r5, r0
    1ee0:	f7fe fd04 	bl	8ec <ZPS_pvAplZdoGetAplHandle>
    1ee4:	4623      	mov	r3, r4
    1ee6:	462a      	mov	r2, r5
    1ee8:	f011 ff9f 	bl	13e2a <zps_eAplAibSetApsUseExtendedPanId>
    1eec:	4b06      	ldr	r3, [pc, #24]	; (1f08 <vHandleNetworkJoinEndDevice+0x40>)
    1eee:	781b      	ldrb	r3, [r3, #0]
    1ef0:	2b01      	cmp	r3, #1
    1ef2:	d003      	beq.n	1efc <vHandleNetworkJoinEndDevice+0x34>
    1ef4:	f7ff ff76 	bl	1de4 <vStopPollTimerTask>
    1ef8:	f000 f9a0 	bl	223c <vStopBlinkTimer>
    1efc:	e8bd 4038 	ldmia.w	sp!, {r3, r4, r5, lr}
    1f00:	f000 b94b 	b.w	219a <vHandleNewJoinEvent>
    1f04:	00028efe 	.word	0x00028efe
    1f08:	04012a51 	.word	0x04012a51

00001f0c <vHandleNetworkLeave>:
    1f0c:	b510      	push	{r4, lr}
    1f0e:	4604      	mov	r4, r0
    1f10:	4809      	ldr	r0, [pc, #36]	; (1f38 <vHandleNetworkLeave+0x2c>)
    1f12:	f000 fa53 	bl	23bc <DbgConsole_Printf>
    1f16:	e9d4 2302 	ldrd	r2, r3, [r4, #8]
    1f1a:	4313      	orrs	r3, r2
    1f1c:	d10b      	bne.n	1f36 <vHandleNetworkLeave+0x2a>
    1f1e:	7c23      	ldrb	r3, [r4, #16]
    1f20:	b94b      	cbnz	r3, 1f36 <vHandleNetworkLeave+0x2a>
    1f22:	4806      	ldr	r0, [pc, #24]	; (1f3c <vHandleNetworkLeave+0x30>)
    1f24:	f000 fa4a 	bl	23bc <DbgConsole_Printf>
    1f28:	f7ff f932 	bl	1190 <APP_vFactoryResetRecords>
    1f2c:	b672      	cpsid	i
    1f2e:	e8bd 4010 	ldmia.w	sp!, {r4, lr}
    1f32:	f001 bf99 	b.w	3e68 <RESET_SystemReset>
    1f36:	bd10      	pop	{r4, pc}
    1f38:	00028f2e 	.word	0x00028f2e
    1f3c:	00028f54 	.word	0x00028f54

00001f40 <vHandleNetworkJoinAndRejoin>:
    1f40:	b508      	push	{r3, lr}
    1f42:	480a      	ldr	r0, [pc, #40]	; (1f6c <vHandleNetworkJoinAndRejoin+0x2c>)
    1f44:	f000 fa3a 	bl	23bc <DbgConsole_Printf>
    1f48:	4b09      	ldr	r3, [pc, #36]	; (1f70 <vHandleNetworkJoinAndRejoin+0x30>)
    1f4a:	7818      	ldrb	r0, [r3, #0]
    1f4c:	f000 ffce 	bl	2eec <ZTIMER_eStop>
    1f50:	f000 f974 	bl	223c <vStopBlinkTimer>
    1f54:	4907      	ldr	r1, [pc, #28]	; (1f74 <vHandleNetworkJoinAndRejoin+0x34>)
    1f56:	2202      	movs	r2, #2
    1f58:	2001      	movs	r0, #1
    1f5a:	700a      	strb	r2, [r1, #0]
    1f5c:	f00d ff66 	bl	fe2c <PDM_eSaveRecordData>
    1f60:	f7fe fcc4 	bl	8ec <ZPS_pvAplZdoGetAplHandle>
    1f64:	e8bd 4008 	ldmia.w	sp!, {r3, lr}
    1f68:	f012 ba98 	b.w	1449c <zps_vSaveAllZpsRecords>
    1f6c:	00028f76 	.word	0x00028f76
    1f70:	04012b18 	.word	0x04012b18
    1f74:	040146f8 	.word	0x040146f8

00001f78 <vHandleNetworkLeaveConfirm>:
    1f78:	e9d0 2302 	ldrd	r2, r3, [r0, #8]
    1f7c:	b510      	push	{r4, lr}
    1f7e:	4604      	mov	r4, r0
    1f80:	4807      	ldr	r0, [pc, #28]	; (1fa0 <vHandleNetworkLeaveConfirm+0x28>)
    1f82:	f000 fa1b 	bl	23bc <DbgConsole_Printf>
    1f86:	e9d4 2302 	ldrd	r2, r3, [r4, #8]
    1f8a:	4313      	orrs	r3, r2
    1f8c:	d106      	bne.n	1f9c <vHandleNetworkLeaveConfirm+0x24>
    1f8e:	f7ff f8ff 	bl	1190 <APP_vFactoryResetRecords>
    1f92:	b672      	cpsid	i
    1f94:	e8bd 4010 	ldmia.w	sp!, {r4, lr}
    1f98:	f001 bf66 	b.w	3e68 <RESET_SystemReset>
    1f9c:	bd10      	pop	{r4, pc}
    1f9e:	bf00      	nop
    1fa0:	00028f89 	.word	0x00028f89

00001fa4 <vDioEventHandler>:
    1fa4:	b510      	push	{r4, lr}
    1fa6:	4604      	mov	r4, r0
    1fa8:	f7fe fca0 	bl	8ec <ZPS_pvAplZdoGetAplHandle>
    1fac:	f012 fe0c 	bl	14bc8 <zps_eAplZdoPoll>
    1fb0:	480c      	ldr	r0, [pc, #48]	; (1fe4 <vDioEventHandler+0x40>)
    1fb2:	4621      	mov	r1, r4
    1fb4:	f000 fa02 	bl	23bc <DbgConsole_Printf>
    1fb8:	2c80      	cmp	r4, #128	; 0x80
    1fba:	d007      	beq.n	1fcc <vDioEventHandler+0x28>
    1fbc:	2c81      	cmp	r4, #129	; 0x81
    1fbe:	d009      	beq.n	1fd4 <vDioEventHandler+0x30>
    1fc0:	2c01      	cmp	r4, #1
    1fc2:	d10e      	bne.n	1fe2 <vDioEventHandler+0x3e>
    1fc4:	e8bd 4010 	ldmia.w	sp!, {r4, lr}
    1fc8:	f000 b8c4 	b.w	2154 <vHandleButtonPressedEvent>
    1fcc:	e8bd 4010 	ldmia.w	sp!, {r4, lr}
    1fd0:	f000 b88e 	b.w	20f0 <vHandlePulseRisingEvent>
    1fd4:	f7fe fb0c 	bl	5f0 <APP_vGetVoltageBattery>
    1fd8:	e8bd 4010 	ldmia.w	sp!, {r4, lr}
    1fdc:	2001      	movs	r0, #1
    1fde:	f7fe bb1b 	b.w	618 <APP_vRadioTempUpdate>
    1fe2:	bd10      	pop	{r4, pc}
    1fe4:	00028fc4 	.word	0x00028fc4

00001fe8 <vAppHandleAppEvent>:
    1fe8:	b510      	push	{r4, lr}
    1fea:	b086      	sub	sp, #24
    1fec:	ab06      	add	r3, sp, #24
    1fee:	e903 0007 	stmdb	r3, {r0, r1, r2}
    1ff2:	f89d 300c 	ldrb.w	r3, [sp, #12]
    1ff6:	f89d 4010 	ldrb.w	r4, [sp, #16]
    1ffa:	3b01      	subs	r3, #1
    1ffc:	2b0a      	cmp	r3, #10
    1ffe:	d846      	bhi.n	208e <vAppHandleAppEvent+0xa6>
    2000:	e8df f003 	tbb	[pc, r3]
    2004:	1f270610 	.word	0x1f270610
    2008:	45454517 	.word	0x45454517
    200c:	4545      	.short	0x4545
    200e:	2d          	.byte	0x2d
    200f:	00          	.byte	0x00
    2010:	4820      	ldr	r0, [pc, #128]	; (2094 <vAppHandleAppEvent+0xac>)
    2012:	4621      	mov	r1, r4
    2014:	f000 f9d2 	bl	23bc <DbgConsole_Printf>
    2018:	4620      	mov	r0, r4
    201a:	b006      	add	sp, #24
    201c:	e8bd 4010 	ldmia.w	sp!, {r4, lr}
    2020:	f7ff bfc0 	b.w	1fa4 <vDioEventHandler>
    2024:	481c      	ldr	r0, [pc, #112]	; (2098 <vAppHandleAppEvent+0xb0>)
    2026:	4621      	mov	r1, r4
    2028:	f000 f9c8 	bl	23bc <DbgConsole_Printf>
    202c:	f044 0080 	orr.w	r0, r4, #128	; 0x80
    2030:	e7f3      	b.n	201a <vAppHandleAppEvent+0x32>
    2032:	481a      	ldr	r0, [pc, #104]	; (209c <vAppHandleAppEvent+0xb4>)
    2034:	f000 f9c2 	bl	23bc <DbgConsole_Printf>
    2038:	b006      	add	sp, #24
    203a:	e8bd 4010 	ldmia.w	sp!, {r4, lr}
    203e:	f000 b8ab 	b.w	2198 <vHandleWakeTimeoutEvent>
    2042:	4817      	ldr	r0, [pc, #92]	; (20a0 <vAppHandleAppEvent+0xb8>)
    2044:	f000 f9ba 	bl	23bc <DbgConsole_Printf>
    2048:	b006      	add	sp, #24
    204a:	e8bd 4010 	ldmia.w	sp!, {r4, lr}
    204e:	f7fe bd85 	b.w	b5c <vSendImmediateAllReport>
    2052:	4814      	ldr	r0, [pc, #80]	; (20a4 <vAppHandleAppEvent+0xbc>)
    2054:	b006      	add	sp, #24
    2056:	e8bd 4010 	ldmia.w	sp!, {r4, lr}
    205a:	f000 b9af 	b.w	23bc <DbgConsole_Printf>
    205e:	4b12      	ldr	r3, [pc, #72]	; (20a8 <vAppHandleAppEvent+0xc0>)
    2060:	781b      	ldrb	r3, [r3, #0]
    2062:	2b02      	cmp	r3, #2
    2064:	d109      	bne.n	207a <vAppHandleAppEvent+0x92>
    2066:	f7fe fc41 	bl	8ec <ZPS_pvAplZdoGetAplHandle>
    206a:	2300      	movs	r3, #0
    206c:	e9cd 3300 	strd	r3, r3, [sp]
    2070:	2200      	movs	r2, #0
    2072:	2300      	movs	r3, #0
    2074:	f012 fd8a 	bl	14b8c <zps_eAplZdoLeaveNetwork>
    2078:	b120      	cbz	r0, 2084 <vAppHandleAppEvent+0x9c>
    207a:	f7ff f889 	bl	1190 <APP_vFactoryResetRecords>
    207e:	b672      	cpsid	i
    2080:	f001 fef2 	bl	3e68 <RESET_SystemReset>
    2084:	b006      	add	sp, #24
    2086:	e8bd 4010 	ldmia.w	sp!, {r4, lr}
    208a:	f00c bb05 	b.w	e698 <PDM_vDeleteAllDataRecords>
    208e:	b006      	add	sp, #24
    2090:	bd10      	pop	{r4, pc}
    2092:	bf00      	nop
    2094:	00028fe4 	.word	0x00028fe4
    2098:	00029011 	.word	0x00029011
    209c:	0002903c 	.word	0x0002903c
    20a0:	00029064 	.word	0x00029064
    20a4:	0002908d 	.word	0x0002908d
    20a8:	040146f8 	.word	0x040146f8

000020ac <vEventStopFindAndBind>:
    20ac:	b508      	push	{r3, lr}
    20ae:	4807      	ldr	r0, [pc, #28]	; (20cc <vEventStopFindAndBind+0x20>)
    20b0:	f000 f984 	bl	23bc <DbgConsole_Printf>
    20b4:	f7fe ff36 	bl	f24 <vAPP_ZCL_DeviceSpecific_IdentifyOff>
    20b8:	f00a ffb0 	bl	d01c <BDB_vFbExitAsInitiator>
    20bc:	f000 f8be 	bl	223c <vStopBlinkTimer>
    20c0:	f7ff fe90 	bl	1de4 <vStopPollTimerTask>
    20c4:	e8bd 4008 	ldmia.w	sp!, {r3, lr}
    20c8:	f000 b867 	b.w	219a <vHandleNewJoinEvent>
    20cc:	000290ba 	.word	0x000290ba

000020d0 <BOARD_GetClock32MCapacitanceCharacteristics>:
    20d0:	4800      	ldr	r0, [pc, #0]	; (20d4 <BOARD_GetClock32MCapacitanceCharacteristics+0x4>)
    20d2:	4770      	bx	lr
    20d4:	000290dc 	.word	0x000290dc

000020d8 <BOARD_CpuClockUpdate32MhzFro>:
    20d8:	f04f 4380 	mov.w	r3, #1073741824	; 0x40000000
    20dc:	2203      	movs	r2, #3
    20de:	4803      	ldr	r0, [pc, #12]	; (20ec <BOARD_CpuClockUpdate32MhzFro+0x14>)
    20e0:	f8c3 2280 	str.w	r2, [r3, #640]	; 0x280
    20e4:	2100      	movs	r1, #0
    20e6:	f002 b9eb 	b.w	44c0 <FLASH_SetReadMode>
    20ea:	bf00      	nop
    20ec:	40009000 	.word	0x40009000

000020f0 <vHandlePulseRisingEvent>:
    20f0:	b5d0      	push	{r4, r6, r7, lr}
    20f2:	4c14      	ldr	r4, [pc, #80]	; (2144 <vHandlePulseRisingEvent+0x54>)
    20f4:	4814      	ldr	r0, [pc, #80]	; (2148 <vHandlePulseRisingEvent+0x58>)
    20f6:	68e1      	ldr	r1, [r4, #12]
    20f8:	e9d4 2300 	ldrd	r2, r3, [r4]
    20fc:	3201      	adds	r2, #1
    20fe:	f143 0300 	adc.w	r3, r3, #0
    2102:	e9c4 2300 	strd	r2, r3, [r4]
    2106:	f000 f959 	bl	23bc <DbgConsole_Printf>
    210a:	e9d4 2300 	ldrd	r2, r3, [r4]
    210e:	68e0      	ldr	r0, [r4, #12]
    2110:	490e      	ldr	r1, [pc, #56]	; (214c <vHandlePulseRisingEvent+0x5c>)
    2112:	fba0 6702 	umull	r6, r7, r0, r2
    2116:	fb00 7703 	mla	r7, r0, r3, r7
    211a:	480d      	ldr	r0, [pc, #52]	; (2150 <vHandlePulseRisingEvent+0x60>)
    211c:	e9c1 23b6 	strd	r2, r3, [r1, #728]	; 0x2d8
    2120:	e9c1 67ba 	strd	r6, r7, [r1, #744]	; 0x2e8
    2124:	f000 f94a 	bl	23bc <DbgConsole_Printf>
    2128:	4621      	mov	r1, r4
    212a:	2218      	movs	r2, #24
    212c:	200c      	movs	r0, #12
    212e:	f00d fe7d 	bl	fe2c <PDM_eSaveRecordData>
    2132:	2101      	movs	r1, #1
    2134:	2000      	movs	r0, #0
    2136:	f000 f851 	bl	21dc <APP_vSetLED>
    213a:	e8bd 40d0 	ldmia.w	sp!, {r4, r6, r7, lr}
    213e:	f7fe bcd9 	b.w	af4 <vSendImmediateIndexReport>
    2142:	bf00      	nop
    2144:	040146e0 	.word	0x040146e0
    2148:	000290e8 	.word	0x000290e8
    214c:	04014350 	.word	0x04014350
    2150:	00029125 	.word	0x00029125

00002154 <vHandleButtonPressedEvent>:
    2154:	b510      	push	{r4, lr}
    2156:	4b0e      	ldr	r3, [pc, #56]	; (2190 <vHandleButtonPressedEvent+0x3c>)
    2158:	781c      	ldrb	r4, [r3, #0]
    215a:	b18c      	cbz	r4, 2180 <vHandleButtonPressedEvent+0x2c>
    215c:	2032      	movs	r0, #50	; 0x32
    215e:	f000 f861 	bl	2224 <vStartBlinkTimer>
    2162:	f7ff f837 	bl	11d4 <APP_bNodeIsInRunningState>
    2166:	b138      	cbz	r0, 2178 <vHandleButtonPressedEvent+0x24>
    2168:	4b0a      	ldr	r3, [pc, #40]	; (2194 <vHandleButtonPressedEvent+0x40>)
    216a:	2201      	movs	r2, #1
    216c:	f883 202a 	strb.w	r2, [r3, #42]	; 0x2a
    2170:	e8bd 4010 	ldmia.w	sp!, {r4, lr}
    2174:	f00a ba4a 	b.w	c60c <BDB_vStart>
    2178:	e8bd 4010 	ldmia.w	sp!, {r4, lr}
    217c:	f7ff bca0 	b.w	1ac0 <vAppHandleStartup>
    2180:	f000 f85c 	bl	223c <vStopBlinkTimer>
    2184:	4620      	mov	r0, r4
    2186:	2101      	movs	r1, #1
    2188:	e8bd 4010 	ldmia.w	sp!, {r4, lr}
    218c:	f000 b826 	b.w	21dc <APP_vSetLED>
    2190:	040146d8 	.word	0x040146d8
    2194:	04015950 	.word	0x04015950

00002198 <vHandleWakeTimeoutEvent>:
    2198:	4770      	bx	lr

0000219a <vHandleNewJoinEvent>:
    219a:	4770      	bx	lr

0000219c <vDecrementTickCount>:
    219c:	4a03      	ldr	r2, [pc, #12]	; (21ac <vDecrementTickCount+0x10>)
    219e:	6813      	ldr	r3, [r2, #0]
    21a0:	2b78      	cmp	r3, #120	; 0x78
    21a2:	bf14      	ite	ne
    21a4:	3301      	addne	r3, #1
    21a6:	2300      	moveq	r3, #0
    21a8:	6013      	str	r3, [r2, #0]
    21aa:	4770      	bx	lr
    21ac:	04014728 	.word	0x04014728

000021b0 <APP_vInitLeds>:
    21b0:	b513      	push	{r0, r1, r4, lr}
    21b2:	2301      	movs	r3, #1
    21b4:	f8ad 3004 	strh.w	r3, [sp, #4]
    21b8:	4c06      	ldr	r4, [pc, #24]	; (21d4 <APP_vInitLeds+0x24>)
    21ba:	4b07      	ldr	r3, [pc, #28]	; (21d8 <APP_vInitLeds+0x28>)
    21bc:	2298      	movs	r2, #152	; 0x98
    21be:	629a      	str	r2, [r3, #40]	; 0x28
    21c0:	2100      	movs	r1, #0
    21c2:	ab01      	add	r3, sp, #4
    21c4:	220a      	movs	r2, #10
    21c6:	4620      	mov	r0, r4
    21c8:	f000 f918 	bl	23fc <GPIO_PinInit>
    21cc:	2300      	movs	r3, #0
    21ce:	72a3      	strb	r3, [r4, #10]
    21d0:	b002      	add	sp, #8
    21d2:	bd10      	pop	{r4, pc}
    21d4:	40080000 	.word	0x40080000
    21d8:	4000f000 	.word	0x4000f000

000021dc <APP_vSetLED>:
    21dc:	b928      	cbnz	r0, 21ea <APP_vSetLED+0xe>
    21de:	4b03      	ldr	r3, [pc, #12]	; (21ec <APP_vSetLED+0x10>)
    21e0:	b111      	cbz	r1, 21e8 <APP_vSetLED+0xc>
    21e2:	2201      	movs	r2, #1
    21e4:	729a      	strb	r2, [r3, #10]
    21e6:	4770      	bx	lr
    21e8:	7299      	strb	r1, [r3, #10]
    21ea:	4770      	bx	lr
    21ec:	40080000 	.word	0x40080000

000021f0 <vAPP_cbBlinkLED>:
    21f0:	4b08      	ldr	r3, [pc, #32]	; (2214 <vAPP_cbBlinkLED+0x24>)
    21f2:	781a      	ldrb	r2, [r3, #0]
    21f4:	2a00      	cmp	r2, #0
    21f6:	bf0c      	ite	eq
    21f8:	2201      	moveq	r2, #1
    21fa:	2200      	movne	r2, #0
    21fc:	701a      	strb	r2, [r3, #0]
    21fe:	4b06      	ldr	r3, [pc, #24]	; (2218 <vAPP_cbBlinkLED+0x28>)
    2200:	bf0c      	ite	eq
    2202:	2201      	moveq	r2, #1
    2204:	2200      	movne	r2, #0
    2206:	729a      	strb	r2, [r3, #10]
    2208:	4b04      	ldr	r3, [pc, #16]	; (221c <vAPP_cbBlinkLED+0x2c>)
    220a:	6819      	ldr	r1, [r3, #0]
    220c:	4b04      	ldr	r3, [pc, #16]	; (2220 <vAPP_cbBlinkLED+0x30>)
    220e:	7818      	ldrb	r0, [r3, #0]
    2210:	f000 be42 	b.w	2e98 <ZTIMER_eStart>
    2214:	0401472c 	.word	0x0401472c
    2218:	40080000 	.word	0x40080000
    221c:	04014730 	.word	0x04014730
    2220:	04012b15 	.word	0x04012b15

00002224 <vStartBlinkTimer>:
    2224:	4b03      	ldr	r3, [pc, #12]	; (2234 <vStartBlinkTimer+0x10>)
    2226:	6018      	str	r0, [r3, #0]
    2228:	4b03      	ldr	r3, [pc, #12]	; (2238 <vStartBlinkTimer+0x14>)
    222a:	4601      	mov	r1, r0
    222c:	7818      	ldrb	r0, [r3, #0]
    222e:	f000 be33 	b.w	2e98 <ZTIMER_eStart>
    2232:	bf00      	nop
    2234:	04014730 	.word	0x04014730
    2238:	04012b15 	.word	0x04012b15

0000223c <vStopBlinkTimer>:
    223c:	b508      	push	{r3, lr}
    223e:	4b05      	ldr	r3, [pc, #20]	; (2254 <vStopBlinkTimer+0x18>)
    2240:	7818      	ldrb	r0, [r3, #0]
    2242:	f000 fe53 	bl	2eec <ZTIMER_eStop>
    2246:	4a04      	ldr	r2, [pc, #16]	; (2258 <vStopBlinkTimer+0x1c>)
    2248:	2300      	movs	r3, #0
    224a:	6013      	str	r3, [r2, #0]
    224c:	4a03      	ldr	r2, [pc, #12]	; (225c <vStopBlinkTimer+0x20>)
    224e:	7293      	strb	r3, [r2, #10]
    2250:	bd08      	pop	{r3, pc}
    2252:	bf00      	nop
    2254:	04012b15 	.word	0x04012b15
    2258:	04014730 	.word	0x04014730
    225c:	40080000 	.word	0x40080000

00002260 <DbgConsole_SendDataReliable>:
    2260:	b510      	push	{r4, lr}
    2262:	460c      	mov	r4, r1
    2264:	4601      	mov	r1, r0
    2266:	b930      	cbnz	r0, 2276 <DbgConsole_SendDataReliable+0x16>
    2268:	4b0b      	ldr	r3, [pc, #44]	; (2298 <DbgConsole_SendDataReliable+0x38>)
    226a:	4a0c      	ldr	r2, [pc, #48]	; (229c <DbgConsole_SendDataReliable+0x3c>)
    226c:	f240 11d1 	movw	r1, #465	; 0x1d1
    2270:	480b      	ldr	r0, [pc, #44]	; (22a0 <DbgConsole_SendDataReliable+0x40>)
    2272:	f005 fd01 	bl	7c78 <__assert_func>
    2276:	b924      	cbnz	r4, 2282 <DbgConsole_SendDataReliable+0x22>
    2278:	4b0a      	ldr	r3, [pc, #40]	; (22a4 <DbgConsole_SendDataReliable+0x44>)
    227a:	4a08      	ldr	r2, [pc, #32]	; (229c <DbgConsole_SendDataReliable+0x3c>)
    227c:	f44f 71e9 	mov.w	r1, #466	; 0x1d2
    2280:	e7f6      	b.n	2270 <DbgConsole_SendDataReliable+0x10>
    2282:	4622      	mov	r2, r4
    2284:	4808      	ldr	r0, [pc, #32]	; (22a8 <DbgConsole_SendDataReliable+0x48>)
    2286:	f005 fbb9 	bl	79fc <SerialManager_WriteBlocking>
    228a:	2800      	cmp	r0, #0
    228c:	bf0c      	ite	eq
    228e:	4620      	moveq	r0, r4
    2290:	f04f 30ff 	movne.w	r0, #4294967295
    2294:	bd10      	pop	{r4, pc}
    2296:	bf00      	nop
    2298:	00029149 	.word	0x00029149
    229c:	000291eb 	.word	0x000291eb
    22a0:	00029154 	.word	0x00029154
    22a4:	000291b9 	.word	0x000291b9
    22a8:	0401474c 	.word	0x0401474c

000022ac <DbgConsole_PrintCallback>:
    22ac:	e92d 43f8 	stmdb	sp!, {r3, r4, r5, r6, r7, r8, r9, lr}
    22b0:	2500      	movs	r5, #0
    22b2:	4606      	mov	r6, r0
    22b4:	460c      	mov	r4, r1
    22b6:	4690      	mov	r8, r2
    22b8:	461f      	mov	r7, r3
    22ba:	46a9      	mov	r9, r5
    22bc:	42bd      	cmp	r5, r7
    22be:	db01      	blt.n	22c4 <DbgConsole_PrintCallback+0x18>
    22c0:	e8bd 83f8 	ldmia.w	sp!, {r3, r4, r5, r6, r7, r8, r9, pc}
    22c4:	6821      	ldr	r1, [r4, #0]
    22c6:	1c4b      	adds	r3, r1, #1
    22c8:	2b7f      	cmp	r3, #127	; 0x7f
    22ca:	d904      	bls.n	22d6 <DbgConsole_PrintCallback+0x2a>
    22cc:	4630      	mov	r0, r6
    22ce:	f7ff ffc7 	bl	2260 <DbgConsole_SendDataReliable>
    22d2:	f8c4 9000 	str.w	r9, [r4]
    22d6:	6823      	ldr	r3, [r4, #0]
    22d8:	f806 8003 	strb.w	r8, [r6, r3]
    22dc:	6823      	ldr	r3, [r4, #0]
    22de:	3301      	adds	r3, #1
    22e0:	6023      	str	r3, [r4, #0]
    22e2:	3501      	adds	r5, #1
    22e4:	e7ea      	b.n	22bc <DbgConsole_PrintCallback+0x10>
    22e6:	Address 0x000022e6 is out of bounds.


000022e8 <DbgConsole_Init>:
    22e8:	b510      	push	{r4, lr}
    22ea:	b088      	sub	sp, #32
    22ec:	e9cd 3104 	strd	r3, r1, [sp, #16]
    22f0:	2301      	movs	r3, #1
    22f2:	2100      	movs	r1, #0
    22f4:	429a      	cmp	r2, r3
    22f6:	f8ad 1018 	strh.w	r1, [sp, #24]
    22fa:	f88d 001a 	strb.w	r0, [sp, #26]
    22fe:	f88d 301b 	strb.w	r3, [sp, #27]
    2302:	f88d 301c 	strb.w	r3, [sp, #28]
    2306:	f88d 2008 	strb.w	r2, [sp, #8]
    230a:	d12e      	bne.n	236a <DbgConsole_Init+0x82>
    230c:	4c18      	ldr	r4, [pc, #96]	; (2370 <DbgConsole_Init+0x88>)
    230e:	ab04      	add	r3, sp, #16
    2310:	221c      	movs	r2, #28
    2312:	4620      	mov	r0, r4
    2314:	9303      	str	r3, [sp, #12]
    2316:	f024 ff75 	bl	27204 <memset>
    231a:	4669      	mov	r1, sp
    231c:	4620      	mov	r0, r4
    231e:	6124      	str	r4, [r4, #16]
    2320:	f005 fa72 	bl	7808 <SerialManager_Init>
    2324:	b130      	cbz	r0, 2334 <DbgConsole_Init+0x4c>
    2326:	4b13      	ldr	r3, [pc, #76]	; (2374 <DbgConsole_Init+0x8c>)
    2328:	4a13      	ldr	r2, [pc, #76]	; (2378 <DbgConsole_Init+0x90>)
    232a:	f240 21d2 	movw	r1, #722	; 0x2d2
    232e:	4813      	ldr	r0, [pc, #76]	; (237c <DbgConsole_Init+0x94>)
    2330:	f005 fca2 	bl	7c78 <__assert_func>
    2334:	6920      	ldr	r0, [r4, #16]
    2336:	f104 0114 	add.w	r1, r4, #20
    233a:	f005 fab7 	bl	78ac <SerialManager_OpenWriteHandle>
    233e:	b120      	cbz	r0, 234a <DbgConsole_Init+0x62>
    2340:	4b0c      	ldr	r3, [pc, #48]	; (2374 <DbgConsole_Init+0x8c>)
    2342:	4a0d      	ldr	r2, [pc, #52]	; (2378 <DbgConsole_Init+0x90>)
    2344:	f44f 7137 	mov.w	r1, #732	; 0x2dc
    2348:	e7f1      	b.n	232e <DbgConsole_Init+0x46>
    234a:	6920      	ldr	r0, [r4, #16]
    234c:	f104 0118 	add.w	r1, r4, #24
    2350:	f005 fafe 	bl	7950 <SerialManager_OpenReadHandle>
    2354:	b120      	cbz	r0, 2360 <DbgConsole_Init+0x78>
    2356:	4b07      	ldr	r3, [pc, #28]	; (2374 <DbgConsole_Init+0x8c>)
    2358:	4a07      	ldr	r2, [pc, #28]	; (2378 <DbgConsole_Init+0x90>)
    235a:	f240 21e7 	movw	r1, #743	; 0x2e7
    235e:	e7e6      	b.n	232e <DbgConsole_Init+0x46>
    2360:	4b07      	ldr	r3, [pc, #28]	; (2380 <DbgConsole_Init+0x98>)
    2362:	6922      	ldr	r2, [r4, #16]
    2364:	601a      	str	r2, [r3, #0]
    2366:	b008      	add	sp, #32
    2368:	bd10      	pop	{r4, pc}
    236a:	f243 5021 	movw	r0, #13601	; 0x3521
    236e:	e7fa      	b.n	2366 <DbgConsole_Init+0x7e>
    2370:	04014738 	.word	0x04014738
    2374:	000291c3 	.word	0x000291c3
    2378:	00029207 	.word	0x00029207
    237c:	00029154 	.word	0x00029154
    2380:	04014734 	.word	0x04014734

00002384 <DbgConsole_Deinit>:
    2384:	b510      	push	{r4, lr}
    2386:	4c0b      	ldr	r4, [pc, #44]	; (23b4 <DbgConsole_Deinit+0x30>)
    2388:	6923      	ldr	r3, [r4, #16]
    238a:	b14b      	cbz	r3, 23a0 <DbgConsole_Deinit+0x1c>
    238c:	f104 0014 	add.w	r0, r4, #20
    2390:	f005 fab6 	bl	7900 <SerialManager_CloseWriteHandle>
    2394:	6923      	ldr	r3, [r4, #16]
    2396:	b11b      	cbz	r3, 23a0 <DbgConsole_Deinit+0x1c>
    2398:	f104 0018 	add.w	r0, r4, #24
    239c:	f005 fb06 	bl	79ac <SerialManager_CloseReadHandle>
    23a0:	6920      	ldr	r0, [r4, #16]
    23a2:	b128      	cbz	r0, 23b0 <DbgConsole_Deinit+0x2c>
    23a4:	f005 fa5c 	bl	7860 <SerialManager_Deinit>
    23a8:	b910      	cbnz	r0, 23b0 <DbgConsole_Deinit+0x2c>
    23aa:	4b03      	ldr	r3, [pc, #12]	; (23b8 <DbgConsole_Deinit+0x34>)
    23ac:	6120      	str	r0, [r4, #16]
    23ae:	6018      	str	r0, [r3, #0]
    23b0:	2000      	movs	r0, #0
    23b2:	bd10      	pop	{r4, pc}
    23b4:	04014738 	.word	0x04014738
    23b8:	04014734 	.word	0x04014734

000023bc <DbgConsole_Printf>:
    23bc:	b40f      	push	{r0, r1, r2, r3}
    23be:	b500      	push	{lr}
    23c0:	b0a3      	sub	sp, #140	; 0x8c
    23c2:	2100      	movs	r1, #0
    23c4:	227c      	movs	r2, #124	; 0x7c
    23c6:	a803      	add	r0, sp, #12
    23c8:	9102      	str	r1, [sp, #8]
    23ca:	f024 ff1b 	bl	27204 <memset>
    23ce:	4b09      	ldr	r3, [pc, #36]	; (23f4 <DbgConsole_Printf+0x38>)
    23d0:	6818      	ldr	r0, [r3, #0]
    23d2:	b150      	cbz	r0, 23ea <DbgConsole_Printf+0x2e>
    23d4:	a925      	add	r1, sp, #148	; 0x94
    23d6:	4b08      	ldr	r3, [pc, #32]	; (23f8 <DbgConsole_Printf+0x3c>)
    23d8:	9824      	ldr	r0, [sp, #144]	; 0x90
    23da:	9101      	str	r1, [sp, #4]
    23dc:	aa02      	add	r2, sp, #8
    23de:	f004 ff55 	bl	728c <StrFormatPrintf>
    23e2:	4601      	mov	r1, r0
    23e4:	a802      	add	r0, sp, #8
    23e6:	f7ff ff3b 	bl	2260 <DbgConsole_SendDataReliable>
    23ea:	b023      	add	sp, #140	; 0x8c
    23ec:	f85d eb04 	ldr.w	lr, [sp], #4
    23f0:	b004      	add	sp, #16
    23f2:	4770      	bx	lr
    23f4:	04014734 	.word	0x04014734
    23f8:	000022ad 	.word	0x000022ad

000023fc <GPIO_PinInit>:
    23fc:	b510      	push	{r4, lr}
    23fe:	2401      	movs	r4, #1
    2400:	fa04 f202 	lsl.w	r2, r4, r2
    2404:	781c      	ldrb	r4, [r3, #0]
    2406:	b924      	cbnz	r4, 2412 <GPIO_PinInit+0x16>
    2408:	f501 6110 	add.w	r1, r1, #2304	; 0x900
    240c:	f840 2021 	str.w	r2, [r0, r1, lsl #2]
    2410:	bd10      	pop	{r4, pc}
    2412:	785b      	ldrb	r3, [r3, #1]
    2414:	b933      	cbnz	r3, 2424 <GPIO_PinInit+0x28>
    2416:	f501 630a 	add.w	r3, r1, #2208	; 0x8a0
    241a:	f840 2023 	str.w	r2, [r0, r3, lsl #2]
    241e:	f501 610e 	add.w	r1, r1, #2272	; 0x8e0
    2422:	e7f3      	b.n	240c <GPIO_PinInit+0x10>
    2424:	f501 6308 	add.w	r3, r1, #2176	; 0x880
    2428:	e7f7      	b.n	241a <GPIO_PinInit+0x1e>
    242a:	Address 0x0000242a is out of bounds.


0000242c <GINT_GetInstance>:
    242c:	b508      	push	{r3, lr}
    242e:	4b05      	ldr	r3, [pc, #20]	; (2444 <GINT_GetInstance+0x18>)
    2430:	4298      	cmp	r0, r3
    2432:	d005      	beq.n	2440 <GINT_GetInstance+0x14>
    2434:	4b04      	ldr	r3, [pc, #16]	; (2448 <GINT_GetInstance+0x1c>)
    2436:	4a05      	ldr	r2, [pc, #20]	; (244c <GINT_GetInstance+0x20>)
    2438:	4805      	ldr	r0, [pc, #20]	; (2450 <GINT_GetInstance+0x24>)
    243a:	2137      	movs	r1, #55	; 0x37
    243c:	f005 fc1c 	bl	7c78 <__assert_func>
    2440:	2000      	movs	r0, #0
    2442:	bd08      	pop	{r3, pc}
    2444:	40011000 	.word	0x40011000
    2448:	00029217 	.word	0x00029217
    244c:	00029286 	.word	0x00029286
    2450:	0002923a 	.word	0x0002923a

00002454 <GINT_Init>:
    2454:	b508      	push	{r3, lr}
    2456:	f7ff ffe9 	bl	242c <GINT_GetInstance>
    245a:	4b06      	ldr	r3, [pc, #24]	; (2474 <GINT_Init+0x20>)
    245c:	2200      	movs	r2, #0
    245e:	f843 2020 	str.w	r2, [r3, r0, lsl #2]
    2462:	2013      	movs	r0, #19
    2464:	f001 fc30 	bl	3cc8 <CLOCK_EnableClock>
    2468:	e8bd 4008 	ldmia.w	sp!, {r3, lr}
    246c:	2013      	movs	r0, #19
    246e:	f001 bcf1 	b.w	3e54 <RESET_PeripheralReset>
    2472:	bf00      	nop
    2474:	04014754 	.word	0x04014754

00002478 <GINT_SetCtrl>:
    2478:	b5f8      	push	{r3, r4, r5, r6, r7, lr}
    247a:	460c      	mov	r4, r1
    247c:	4615      	mov	r5, r2
    247e:	461f      	mov	r7, r3
    2480:	4606      	mov	r6, r0
    2482:	0064      	lsls	r4, r4, #1
    2484:	f7ff ffd2 	bl	242c <GINT_GetInstance>
    2488:	00ad      	lsls	r5, r5, #2
    248a:	4b05      	ldr	r3, [pc, #20]	; (24a0 <GINT_SetCtrl+0x28>)
    248c:	f004 0402 	and.w	r4, r4, #2
    2490:	f005 0504 	and.w	r5, r5, #4
    2494:	432c      	orrs	r4, r5
    2496:	6034      	str	r4, [r6, #0]
    2498:	f843 7020 	str.w	r7, [r3, r0, lsl #2]
    249c:	bdf8      	pop	{r3, r4, r5, r6, r7, pc}
    249e:	bf00      	nop
    24a0:	04014754 	.word	0x04014754

000024a4 <GINT_ConfigPins>:
    24a4:	eb00 0181 	add.w	r1, r0, r1, lsl #2
    24a8:	620a      	str	r2, [r1, #32]
    24aa:	640b      	str	r3, [r1, #64]	; 0x40
    24ac:	4770      	bx	lr
    24ae:	Address 0x000024ae is out of bounds.


000024b0 <GINT_EnableCallback>:
    24b0:	b510      	push	{r4, lr}
    24b2:	4604      	mov	r4, r0
    24b4:	f7ff ffba 	bl	242c <GINT_GetInstance>
    24b8:	6823      	ldr	r3, [r4, #0]
    24ba:	f043 0301 	orr.w	r3, r3, #1
    24be:	6023      	str	r3, [r4, #0]
    24c0:	4b02      	ldr	r3, [pc, #8]	; (24cc <GINT_EnableCallback+0x1c>)
    24c2:	2204      	movs	r2, #4
    24c4:	f8c3 2180 	str.w	r2, [r3, #384]	; 0x180
    24c8:	601a      	str	r2, [r3, #0]
    24ca:	bd10      	pop	{r4, pc}
    24cc:	e000e100 	.word	0xe000e100

000024d0 <GINT_DisableCallback>:
    24d0:	b510      	push	{r4, lr}
    24d2:	4604      	mov	r4, r0
    24d4:	f7ff ffaa 	bl	242c <GINT_GetInstance>
    24d8:	4a07      	ldr	r2, [pc, #28]	; (24f8 <GINT_DisableCallback+0x28>)
    24da:	2104      	movs	r1, #4
    24dc:	f8c2 1080 	str.w	r1, [r2, #128]	; 0x80
    24e0:	f3bf 8f4f 	dsb	sy
    24e4:	f3bf 8f6f 	isb	sy
    24e8:	6823      	ldr	r3, [r4, #0]
    24ea:	f043 0301 	orr.w	r3, r3, #1
    24ee:	6023      	str	r3, [r4, #0]
    24f0:	f8c2 1180 	str.w	r1, [r2, #384]	; 0x180
    24f4:	bd10      	pop	{r4, pc}
    24f6:	bf00      	nop
    24f8:	e000e100 	.word	0xe000e100

000024fc <GINT0_DriverIRQHandler>:
    24fc:	4a06      	ldr	r2, [pc, #24]	; (2518 <GINT0_DriverIRQHandler+0x1c>)
    24fe:	b508      	push	{r3, lr}
    2500:	6813      	ldr	r3, [r2, #0]
    2502:	f043 0301 	orr.w	r3, r3, #1
    2506:	6013      	str	r3, [r2, #0]
    2508:	4b04      	ldr	r3, [pc, #16]	; (251c <GINT0_DriverIRQHandler+0x20>)
    250a:	681b      	ldr	r3, [r3, #0]
    250c:	b103      	cbz	r3, 2510 <GINT0_DriverIRQHandler+0x14>
    250e:	4798      	blx	r3
    2510:	f3bf 8f4f 	dsb	sy
    2514:	bd08      	pop	{r3, pc}
    2516:	bf00      	nop
    2518:	40011000 	.word	0x40011000
    251c:	04014754 	.word	0x04014754

00002520 <BOARD_InitClocks>:
    2520:	b510      	push	{r4, lr}
    2522:	f001 fb00 	bl	3b26 <CLOCK_EnableAPBBridge>
    2526:	4824      	ldr	r0, [pc, #144]	; (25b8 <BOARD_InitClocks+0x98>)
    2528:	4c24      	ldr	r4, [pc, #144]	; (25bc <BOARD_InitClocks+0x9c>)
    252a:	f001 fbcd 	bl	3cc8 <CLOCK_EnableClock>
    252e:	4824      	ldr	r0, [pc, #144]	; (25c0 <BOARD_InitClocks+0xa0>)
    2530:	f001 fbca 	bl	3cc8 <CLOCK_EnableClock>
    2534:	4823      	ldr	r0, [pc, #140]	; (25c4 <BOARD_InitClocks+0xa4>)
    2536:	f001 fbc7 	bl	3cc8 <CLOCK_EnableClock>
    253a:	200d      	movs	r0, #13
    253c:	f001 fbc4 	bl	3cc8 <CLOCK_EnableClock>
    2540:	200b      	movs	r0, #11
    2542:	f001 fbc1 	bl	3cc8 <CLOCK_EnableClock>
    2546:	200e      	movs	r0, #14
    2548:	f001 fbbe 	bl	3cc8 <CLOCK_EnableClock>
    254c:	201b      	movs	r0, #27
    254e:	f001 fbbb 	bl	3cc8 <CLOCK_EnableClock>
    2552:	f8d4 30b8 	ldr.w	r3, [r4, #184]	; 0xb8
    2556:	f443 0380 	orr.w	r3, r3, #4194304	; 0x400000
    255a:	f8c4 30b8 	str.w	r3, [r4, #184]	; 0xb8
    255e:	f241 00ac 	movw	r0, #4268	; 0x10ac
    2562:	f001 f801 	bl	3568 <CLOCK_AttachClk>
    2566:	f240 100d 	movw	r0, #269	; 0x10d
    256a:	f001 fbad 	bl	3cc8 <CLOCK_EnableClock>
    256e:	f44f 708a 	mov.w	r0, #276	; 0x114
    2572:	f001 fba9 	bl	3cc8 <CLOCK_EnableClock>
    2576:	f241 00ad 	movw	r0, #4269	; 0x10ad
    257a:	f000 fff5 	bl	3568 <CLOCK_AttachClk>
    257e:	f44f 708c 	mov.w	r0, #280	; 0x118
    2582:	f001 fba1 	bl	3cc8 <CLOCK_EnableClock>
    2586:	f241 00ad 	movw	r0, #4269	; 0x10ad
    258a:	f000 ffed 	bl	3568 <CLOCK_AttachClk>
    258e:	f241 00a9 	movw	r0, #4265	; 0x10a9
    2592:	f000 ffe9 	bl	3568 <CLOCK_AttachClk>
    2596:	f8d4 30b8 	ldr.w	r3, [r4, #184]	; 0xb8
    259a:	f443 0380 	orr.w	r3, r3, #4194304	; 0x400000
    259e:	f8c4 30b8 	str.w	r3, [r4, #184]	; 0xb8
    25a2:	f242 00b1 	movw	r0, #8369	; 0x20b1
    25a6:	f000 ffdf 	bl	3568 <CLOCK_AttachClk>
    25aa:	2201      	movs	r2, #1
    25ac:	e8bd 4010 	ldmia.w	sp!, {r4, lr}
    25b0:	4611      	mov	r1, r2
    25b2:	20db      	movs	r0, #219	; 0xdb
    25b4:	f001 b85c 	b.w	3670 <CLOCK_SetClkDiv>
    25b8:	00010008 	.word	0x00010008
    25bc:	40012000 	.word	0x40012000
    25c0:	00010004 	.word	0x00010004
    25c4:	00010005 	.word	0x00010005

000025c8 <BOARD_InitHardware>:
    25c8:	b508      	push	{r3, lr}
    25ca:	f04f 4380 	mov.w	r3, #1073741824	; 0x40000000
    25ce:	4a0f      	ldr	r2, [pc, #60]	; (260c <BOARD_InitHardware+0x44>)
    25d0:	f8c3 2ff0 	str.w	r2, [r3, #4080]	; 0xff0
    25d4:	f002 f9f4 	bl	49c0 <POWER_Init>
    25d8:	480d      	ldr	r0, [pc, #52]	; (2610 <BOARD_InitHardware+0x48>)
    25da:	f001 fc3b 	bl	3e54 <RESET_PeripheralReset>
    25de:	200e      	movs	r0, #14
    25e0:	f001 fc38 	bl	3e54 <RESET_PeripheralReset>
    25e4:	480b      	ldr	r0, [pc, #44]	; (2614 <BOARD_InitHardware+0x4c>)
    25e6:	f001 fc35 	bl	3e54 <RESET_PeripheralReset>
    25ea:	480b      	ldr	r0, [pc, #44]	; (2618 <BOARD_InitHardware+0x50>)
    25ec:	f001 fc32 	bl	3e54 <RESET_PeripheralReset>
    25f0:	4a0a      	ldr	r2, [pc, #40]	; (261c <BOARD_InitHardware+0x54>)
    25f2:	6813      	ldr	r3, [r2, #0]
    25f4:	f043 0308 	orr.w	r3, r3, #8
    25f8:	6013      	str	r3, [r2, #0]
    25fa:	f7ff ff91 	bl	2520 <BOARD_InitClocks>
    25fe:	f000 fe19 	bl	3234 <BOARD_InitDebugConsole>
    2602:	e8bd 4008 	ldmia.w	sp!, {r3, lr}
    2606:	f000 b80b 	b.w	2620 <BOARD_InitPins>
    260a:	bf00      	nop
    260c:	87654320 	.word	0x87654320
    2610:	0001000b 	.word	0x0001000b
    2614:	0001000d 	.word	0x0001000d
    2618:	00010014 	.word	0x00010014
    261c:	40012000 	.word	0x40012000

00002620 <BOARD_InitPins>:
    2620:	4b03      	ldr	r3, [pc, #12]	; (2630 <BOARD_InitPins+0x10>)
    2622:	2292      	movs	r2, #146	; 0x92
    2624:	621a      	str	r2, [r3, #32]
    2626:	625a      	str	r2, [r3, #36]	; 0x24
    2628:	2298      	movs	r2, #152	; 0x98
    262a:	629a      	str	r2, [r3, #40]	; 0x28
    262c:	4770      	bx	lr
    262e:	bf00      	nop
    2630:	4000f000 	.word	0x4000f000

00002634 <BOARD_SetPinsForPowerMode>:
    2634:	b5f7      	push	{r0, r1, r2, r4, r5, r6, r7, lr}
    2636:	4e0b      	ldr	r6, [pc, #44]	; (2664 <BOARD_SetPinsForPowerMode+0x30>)
    2638:	4f0b      	ldr	r7, [pc, #44]	; (2668 <BOARD_SetPinsForPowerMode+0x34>)
    263a:	2400      	movs	r4, #0
    263c:	f44f 7580 	mov.w	r5, #256	; 0x100
    2640:	2c0a      	cmp	r4, #10
    2642:	d00a      	beq.n	265a <BOARD_SetPinsForPowerMode+0x26>
    2644:	ab01      	add	r3, sp, #4
    2646:	4622      	mov	r2, r4
    2648:	2100      	movs	r1, #0
    264a:	4630      	mov	r0, r6
    264c:	f8ad 5004 	strh.w	r5, [sp, #4]
    2650:	f7ff fed4 	bl	23fc <GPIO_PinInit>
    2654:	2380      	movs	r3, #128	; 0x80
    2656:	f847 3024 	str.w	r3, [r7, r4, lsl #2]
    265a:	3401      	adds	r4, #1
    265c:	2c16      	cmp	r4, #22
    265e:	d1ef      	bne.n	2640 <BOARD_SetPinsForPowerMode+0xc>
    2660:	b003      	add	sp, #12
    2662:	bdf0      	pop	{r4, r5, r6, r7, pc}
    2664:	40080000 	.word	0x40080000
    2668:	4000f000 	.word	0x4000f000

0000266c <compute_estimated_sum>:
    266c:	e92d 43f0 	stmdb	sp!, {r4, r5, r6, r7, r8, r9, lr}
    2670:	2600      	movs	r6, #0
    2672:	f8df 9040 	ldr.w	r9, [pc, #64]	; 26b4 <compute_estimated_sum+0x48>
    2676:	b085      	sub	sp, #20
    2678:	4605      	mov	r5, r0
    267a:	460f      	mov	r7, r1
    267c:	4690      	mov	r8, r2
    267e:	4634      	mov	r4, r6
    2680:	42be      	cmp	r6, r7
    2682:	d103      	bne.n	268c <compute_estimated_sum+0x20>
    2684:	4620      	mov	r0, r4
    2686:	b005      	add	sp, #20
    2688:	e8bd 83f0 	ldmia.w	sp!, {r4, r5, r6, r7, r8, r9, pc}
    268c:	68ab      	ldr	r3, [r5, #8]
    268e:	f043 6380 	orr.w	r3, r3, #67108864	; 0x4000000
    2692:	60ab      	str	r3, [r5, #8]
    2694:	466a      	mov	r2, sp
    2696:	4641      	mov	r1, r8
    2698:	4628      	mov	r0, r5
    269a:	f000 fac3 	bl	2c24 <ADC_GetChannelConversionResult>
    269e:	2800      	cmp	r0, #0
    26a0:	d0f8      	beq.n	2694 <compute_estimated_sum+0x28>
    26a2:	9900      	ldr	r1, [sp, #0]
    26a4:	4648      	mov	r0, r9
    26a6:	440c      	add	r4, r1
    26a8:	b2a4      	uxth	r4, r4
    26aa:	f7ff fe87 	bl	23bc <DbgConsole_Printf>
    26ae:	3601      	adds	r6, #1
    26b0:	e7e6      	b.n	2680 <compute_estimated_sum+0x14>
    26b2:	bf00      	nop
    26b4:	00029297 	.word	0x00029297

000026b8 <flashConfig_ExtractGpAdcTrimValues>:
    26b8:	490b      	ldr	r1, [pc, #44]	; (26e8 <flashConfig_ExtractGpAdcTrimValues+0x30>)
    26ba:	680a      	ldr	r2, [r1, #0]
    26bc:	4603      	mov	r3, r0
    26be:	f012 0001 	ands.w	r0, r2, #1
    26c2:	b510      	push	{r4, lr}
    26c4:	d00f      	beq.n	26e6 <flashConfig_ExtractGpAdcTrimValues+0x2e>
    26c6:	f3c2 0449 	ubfx	r4, r2, #1, #10
    26ca:	801c      	strh	r4, [r3, #0]
    26cc:	f3c2 24c9 	ubfx	r4, r2, #11, #10
    26d0:	f3c2 5249 	ubfx	r2, r2, #21, #10
    26d4:	809a      	strh	r2, [r3, #4]
    26d6:	684a      	ldr	r2, [r1, #4]
    26d8:	805c      	strh	r4, [r3, #2]
    26da:	f3c2 010b 	ubfx	r1, r2, #0, #12
    26de:	f3c2 320b 	ubfx	r2, r2, #12, #12
    26e2:	80d9      	strh	r1, [r3, #6]
    26e4:	811a      	strh	r2, [r3, #8]
    26e6:	bd10      	pop	{r4, pc}
    26e8:	0009fc80 	.word	0x0009fc80

000026ec <flashConfig_ExtractTempSensorTrimValues>:
    26ec:	4a15      	ldr	r2, [pc, #84]	; (2744 <flashConfig_ExtractTempSensorTrimValues+0x58>)
    26ee:	4603      	mov	r3, r0
    26f0:	6810      	ldr	r0, [r2, #0]
    26f2:	f010 0001 	ands.w	r0, r0, #1
    26f6:	b510      	push	{r4, lr}
    26f8:	d023      	beq.n	2742 <flashConfig_ExtractTempSensorTrimValues+0x56>
    26fa:	6951      	ldr	r1, [r2, #20]
    26fc:	8019      	strh	r1, [r3, #0]
    26fe:	0c09      	lsrs	r1, r1, #16
    2700:	8059      	strh	r1, [r3, #2]
    2702:	6991      	ldr	r1, [r2, #24]
    2704:	8099      	strh	r1, [r3, #4]
    2706:	0c09      	lsrs	r1, r1, #16
    2708:	80d9      	strh	r1, [r3, #6]
    270a:	69d1      	ldr	r1, [r2, #28]
    270c:	8119      	strh	r1, [r3, #8]
    270e:	0c09      	lsrs	r1, r1, #16
    2710:	8159      	strh	r1, [r3, #10]
    2712:	6a11      	ldr	r1, [r2, #32]
    2714:	8199      	strh	r1, [r3, #12]
    2716:	0c09      	lsrs	r1, r1, #16
    2718:	81d9      	strh	r1, [r3, #14]
    271a:	490b      	ldr	r1, [pc, #44]	; (2748 <flashConfig_ExtractTempSensorTrimValues+0x5c>)
    271c:	880c      	ldrh	r4, [r1, #0]
    271e:	6a51      	ldr	r1, [r2, #36]	; 0x24
    2720:	821c      	strh	r4, [r3, #16]
    2722:	0c09      	lsrs	r1, r1, #16
    2724:	8259      	strh	r1, [r3, #18]
    2726:	3214      	adds	r2, #20
    2728:	6951      	ldr	r1, [r2, #20]
    272a:	6992      	ldr	r2, [r2, #24]
    272c:	835a      	strh	r2, [r3, #26]
    272e:	f3c1 040b 	ubfx	r4, r1, #0, #12
    2732:	829c      	strh	r4, [r3, #20]
    2734:	0c12      	lsrs	r2, r2, #16
    2736:	f3c1 3409 	ubfx	r4, r1, #12, #10
    273a:	0d89      	lsrs	r1, r1, #22
    273c:	82dc      	strh	r4, [r3, #22]
    273e:	8319      	strh	r1, [r3, #24]
    2740:	839a      	strh	r2, [r3, #28]
    2742:	bd10      	pop	{r4, pc}
    2744:	0009fc8c 	.word	0x0009fc8c
    2748:	0009fcb0 	.word	0x0009fcb0

0000274c <temp_computation>:
    274c:	b5f8      	push	{r3, r4, r5, r6, r7, lr}
    274e:	4b2e      	ldr	r3, [pc, #184]	; (2808 <temp_computation+0xbc>)
    2750:	681e      	ldr	r6, [r3, #0]
    2752:	f9b6 3014 	ldrsh.w	r3, [r6, #20]
    2756:	fb03 0312 	mls	r3, r3, r2, r0
    275a:	8bb0      	ldrh	r0, [r6, #28]
    275c:	fb10 f003 	smulbb	r0, r0, r3
    2760:	1405      	asrs	r5, r0, #16
    2762:	f5c5 2580 	rsb	r5, r5, #262144	; 0x40000
    2766:	b21c      	sxth	r4, r3
    2768:	fbb5 f3f2 	udiv	r3, r5, r2
    276c:	076d      	lsls	r5, r5, #29
    276e:	d504      	bpl.n	277a <temp_computation+0x2e>
    2770:	2800      	cmp	r0, #0
    2772:	bfb4      	ite	lt
    2774:	f103 33ff 	addlt.w	r3, r3, #4294967295
    2778:	3301      	addge	r3, #1
    277a:	f9b6 001a 	ldrsh.w	r0, [r6, #26]
    277e:	f9b6 7012 	ldrsh.w	r7, [r6, #18]
    2782:	4343      	muls	r3, r0
    2784:	f9b6 000c 	ldrsh.w	r0, [r6, #12]
    2788:	141b      	asrs	r3, r3, #16
    278a:	1a09      	subs	r1, r1, r0
    278c:	4359      	muls	r1, r3
    278e:	f996 0010 	ldrsb.w	r0, [r6, #16]
    2792:	8af3      	ldrh	r3, [r6, #22]
    2794:	eb07 3161 	add.w	r1, r7, r1, asr #13
    2798:	fb13 f404 	smulbb	r4, r3, r4
    279c:	ebc0 13e1 	rsb	r3, r0, r1, asr #7
    27a0:	fb94 f2f2 	sdiv	r2, r4, r2
    27a4:	ebc0 10e7 	rsb	r0, r0, r7, asr #7
    27a8:	f996 4011 	ldrsb.w	r4, [r6, #17]
    27ac:	435b      	muls	r3, r3
    27ae:	119b      	asrs	r3, r3, #6
    27b0:	4340      	muls	r0, r0
    27b2:	4363      	muls	r3, r4
    27b4:	1180      	asrs	r0, r0, #6
    27b6:	4360      	muls	r0, r4
    27b8:	2900      	cmp	r1, #0
    27ba:	eb01 14a3 	add.w	r4, r1, r3, asr #6
    27be:	ea4f 2562 	mov.w	r5, r2, asr #9
    27c2:	ea4f 17a0 	mov.w	r7, r0, asr #6
    27c6:	eba4 14a0 	sub.w	r4, r4, r0, asr #6
    27ca:	bfb4      	ite	lt
    27cc:	480f      	ldrlt	r0, [pc, #60]	; (280c <temp_computation+0xc0>)
    27ce:	4810      	ldrge	r0, [pc, #64]	; (2810 <temp_computation+0xc4>)
    27d0:	119e      	asrs	r6, r3, #6
    27d2:	eba4 2462 	sub.w	r4, r4, r2, asr #9
    27d6:	f7ff fdf1 	bl	23bc <DbgConsole_Printf>
    27da:	2d00      	cmp	r5, #0
    27dc:	bfb4      	ite	lt
    27de:	480d      	ldrlt	r0, [pc, #52]	; (2814 <temp_computation+0xc8>)
    27e0:	480d      	ldrge	r0, [pc, #52]	; (2818 <temp_computation+0xcc>)
    27e2:	4629      	mov	r1, r5
    27e4:	f7ff fdea 	bl	23bc <DbgConsole_Printf>
    27e8:	2e00      	cmp	r6, #0
    27ea:	bfb4      	ite	lt
    27ec:	480b      	ldrlt	r0, [pc, #44]	; (281c <temp_computation+0xd0>)
    27ee:	480c      	ldrge	r0, [pc, #48]	; (2820 <temp_computation+0xd4>)
    27f0:	4631      	mov	r1, r6
    27f2:	f7ff fde3 	bl	23bc <DbgConsole_Printf>
    27f6:	2f00      	cmp	r7, #0
    27f8:	bfb4      	ite	lt
    27fa:	480a      	ldrlt	r0, [pc, #40]	; (2824 <temp_computation+0xd8>)
    27fc:	480a      	ldrge	r0, [pc, #40]	; (2828 <temp_computation+0xdc>)
    27fe:	4639      	mov	r1, r7
    2800:	f7ff fddc 	bl	23bc <DbgConsole_Printf>
    2804:	4620      	mov	r0, r4
    2806:	bdf8      	pop	{r3, r4, r5, r6, r7, pc}
    2808:	04012884 	.word	0x04012884
    280c:	000292a7 	.word	0x000292a7
    2810:	000292c6 	.word	0x000292c6
    2814:	000292e4 	.word	0x000292e4
    2818:	00029308 	.word	0x00029308
    281c:	0002932b 	.word	0x0002932b
    2820:	00029354 	.word	0x00029354
    2824:	0002937c 	.word	0x0002937c
    2828:	0002939f 	.word	0x0002939f

0000282c <ADC_Configuration>:
    282c:	b5f8      	push	{r3, r4, r5, r6, r7, lr}
    282e:	4d19      	ldr	r5, [pc, #100]	; (2894 <ADC_Configuration+0x68>)
    2830:	2201      	movs	r2, #1
    2832:	f04f 4380 	mov.w	r3, #1073741824	; 0x40000000
    2836:	702a      	strb	r2, [r5, #0]
    2838:	f8d3 32a4 	ldr.w	r3, [r3, #676]	; 0x2a4
    283c:	f013 0303 	ands.w	r3, r3, #3
    2840:	4604      	mov	r4, r0
    2842:	460f      	mov	r7, r1
    2844:	d006      	beq.n	2854 <ADC_Configuration+0x28>
    2846:	4293      	cmp	r3, r2
    2848:	d020      	beq.n	288c <ADC_Configuration+0x60>
    284a:	4813      	ldr	r0, [pc, #76]	; (2898 <ADC_Configuration+0x6c>)
    284c:	f7ff fdb6 	bl	23bc <DbgConsole_Printf>
    2850:	2000      	movs	r0, #0
    2852:	e01a      	b.n	288a <ADC_Configuration+0x5e>
    2854:	2108      	movs	r1, #8
    2856:	20e5      	movs	r0, #229	; 0xe5
    2858:	f000 ff0a 	bl	3670 <CLOCK_SetClkDiv>
    285c:	2600      	movs	r6, #0
    285e:	490d      	ldr	r1, [pc, #52]	; (2894 <ADC_Configuration+0x68>)
    2860:	722e      	strb	r6, [r5, #8]
    2862:	4620      	mov	r0, r4
    2864:	60ee      	str	r6, [r5, #12]
    2866:	f000 f953 	bl	2b10 <ADC_Init>
    286a:	490c      	ldr	r1, [pc, #48]	; (289c <ADC_Configuration+0x70>)
    286c:	4b0c      	ldr	r3, [pc, #48]	; (28a0 <ADC_Configuration+0x74>)
    286e:	608b      	str	r3, [r1, #8]
    2870:	4620      	mov	r0, r4
    2872:	e9c1 6600 	strd	r6, r6, [r1]
    2876:	f000 f9ab 	bl	2bd0 <ADC_SetConvSeqAConfig>
    287a:	4638      	mov	r0, r7
    287c:	f001 f960 	bl	3b40 <CLOCK_uDelay>
    2880:	68a3      	ldr	r3, [r4, #8]
    2882:	f043 4300 	orr.w	r3, r3, #2147483648	; 0x80000000
    2886:	60a3      	str	r3, [r4, #8]
    2888:	2001      	movs	r0, #1
    288a:	bdf8      	pop	{r3, r4, r5, r6, r7, pc}
    288c:	461a      	mov	r2, r3
    288e:	2103      	movs	r1, #3
    2890:	e7e1      	b.n	2856 <ADC_Configuration+0x2a>
    2892:	bf00      	nop
    2894:	04014758 	.word	0x04014758
    2898:	000293c1 	.word	0x000293c1
    289c:	04014768 	.word	0x04014768
    28a0:	01000001 	.word	0x01000001

000028a4 <load_calibration_param_from_flash>:
    28a4:	b570      	push	{r4, r5, r6, lr}
    28a6:	4606      	mov	r6, r0
    28a8:	4819      	ldr	r0, [pc, #100]	; (2910 <load_calibration_param_from_flash+0x6c>)
    28aa:	f7ff ff05 	bl	26b8 <flashConfig_ExtractGpAdcTrimValues>
    28ae:	4604      	mov	r4, r0
    28b0:	b920      	cbnz	r0, 28bc <load_calibration_param_from_flash+0x18>
    28b2:	4818      	ldr	r0, [pc, #96]	; (2914 <load_calibration_param_from_flash+0x70>)
    28b4:	f7ff fd82 	bl	23bc <DbgConsole_Printf>
    28b8:	4620      	mov	r0, r4
    28ba:	bd70      	pop	{r4, r5, r6, pc}
    28bc:	4d16      	ldr	r5, [pc, #88]	; (2918 <load_calibration_param_from_flash+0x74>)
    28be:	4628      	mov	r0, r5
    28c0:	f7ff ff14 	bl	26ec <flashConfig_ExtractTempSensorTrimValues>
    28c4:	4604      	mov	r4, r0
    28c6:	b908      	cbnz	r0, 28cc <load_calibration_param_from_flash+0x28>
    28c8:	4814      	ldr	r0, [pc, #80]	; (291c <load_calibration_param_from_flash+0x78>)
    28ca:	e7f3      	b.n	28b4 <load_calibration_param_from_flash+0x10>
    28cc:	f9b5 2016 	ldrsh.w	r2, [r5, #22]
    28d0:	0590      	lsls	r0, r2, #22
    28d2:	bf42      	ittt	mi
    28d4:	ea6f 5282 	mvnmi.w	r2, r2, lsl #22
    28d8:	ea6f 5292 	mvnmi.w	r2, r2, lsr #22
    28dc:	82ea      	strhmi	r2, [r5, #22]
    28de:	f9b5 2018 	ldrsh.w	r2, [r5, #24]
    28e2:	0591      	lsls	r1, r2, #22
    28e4:	490a      	ldr	r1, [pc, #40]	; (2910 <load_calibration_param_from_flash+0x6c>)
    28e6:	bf48      	it	mi
    28e8:	ea6f 5282 	mvnmi.w	r2, r2, lsl #22
    28ec:	880b      	ldrh	r3, [r1, #0]
    28ee:	8849      	ldrh	r1, [r1, #2]
    28f0:	bf44      	itt	mi
    28f2:	ea6f 5292 	mvnmi.w	r2, r2, lsr #22
    28f6:	832a      	strhmi	r2, [r5, #24]
    28f8:	f3c3 0209 	ubfx	r2, r3, #0, #10
    28fc:	4b08      	ldr	r3, [pc, #32]	; (2920 <load_calibration_param_from_flash+0x7c>)
    28fe:	ea03 2381 	and.w	r3, r3, r1, lsl #10
    2902:	4313      	orrs	r3, r2
    2904:	6773      	str	r3, [r6, #116]	; 0x74
    2906:	4b07      	ldr	r3, [pc, #28]	; (2924 <load_calibration_param_from_flash+0x80>)
    2908:	2201      	movs	r2, #1
    290a:	701a      	strb	r2, [r3, #0]
    290c:	e7d4      	b.n	28b8 <load_calibration_param_from_flash+0x14>
    290e:	bf00      	nop
    2910:	04014774 	.word	0x04014774
    2914:	00029403 	.word	0x00029403
    2918:	04014780 	.word	0x04014780
    291c:	00029448 	.word	0x00029448
    2920:	000ffc00 	.word	0x000ffc00
    2924:	0401477e 	.word	0x0401477e

00002928 <get_temperature>:
    2928:	e92d 47f0 	stmdb	sp!, {r4, r5, r6, r7, r8, r9, sl, lr}
    292c:	461e      	mov	r6, r3
    292e:	4b3e      	ldr	r3, [pc, #248]	; (2a28 <get_temperature+0x100>)
    2930:	781b      	ldrb	r3, [r3, #0]
    2932:	4688      	mov	r8, r1
    2934:	4604      	mov	r4, r0
    2936:	4611      	mov	r1, r2
    2938:	b91b      	cbnz	r3, 2942 <get_temperature+0x1a>
    293a:	2700      	movs	r7, #0
    293c:	4638      	mov	r0, r7
    293e:	e8bd 87f0 	ldmia.w	sp!, {r4, r5, r6, r7, r8, r9, sl, pc}
    2942:	f7ff ff73 	bl	282c <ADC_Configuration>
    2946:	4607      	mov	r7, r0
    2948:	2800      	cmp	r0, #0
    294a:	d0f6      	beq.n	293a <get_temperature+0x12>
    294c:	68a3      	ldr	r3, [r4, #8]
    294e:	4837      	ldr	r0, [pc, #220]	; (2a2c <get_temperature+0x104>)
    2950:	4d37      	ldr	r5, [pc, #220]	; (2a30 <get_temperature+0x108>)
    2952:	f023 4300 	bic.w	r3, r3, #2147483648	; 0x80000000
    2956:	60a3      	str	r3, [r4, #8]
    2958:	f7ff fd30 	bl	23bc <DbgConsole_Printf>
    295c:	2101      	movs	r1, #1
    295e:	4620      	mov	r0, r4
    2960:	f000 f9a0 	bl	2ca4 <ADC_EnableTemperatureSensor>
    2964:	2064      	movs	r0, #100	; 0x64
    2966:	f001 f8eb 	bl	3b40 <CLOCK_uDelay>
    296a:	6f23      	ldr	r3, [r4, #112]	; 0x70
    296c:	f423 437e 	bic.w	r3, r3, #65024	; 0xfe00
    2970:	f443 433e 	orr.w	r3, r3, #48640	; 0xbe00
    2974:	6723      	str	r3, [r4, #112]	; 0x70
    2976:	2301      	movs	r3, #1
    2978:	fa03 f308 	lsl.w	r3, r3, r8
    297c:	4620      	mov	r0, r4
    297e:	f04f 0a02 	mov.w	sl, #2
    2982:	f240 1901 	movw	r9, #257	; 0x101
    2986:	4629      	mov	r1, r5
    2988:	602b      	str	r3, [r5, #0]
    298a:	e9c5 a901 	strd	sl, r9, [r5, #4]
    298e:	f000 f91f 	bl	2bd0 <ADC_SetConvSeqAConfig>
    2992:	68a3      	ldr	r3, [r4, #8]
    2994:	f043 4300 	orr.w	r3, r3, #2147483648	; 0x80000000
    2998:	4642      	mov	r2, r8
    299a:	60a3      	str	r3, [r4, #8]
    299c:	4631      	mov	r1, r6
    299e:	4620      	mov	r0, r4
    29a0:	f7ff fe64 	bl	266c <compute_estimated_sum>
    29a4:	4680      	mov	r8, r0
    29a6:	4601      	mov	r1, r0
    29a8:	4822      	ldr	r0, [pc, #136]	; (2a34 <get_temperature+0x10c>)
    29aa:	f7ff fd07 	bl	23bc <DbgConsole_Printf>
    29ae:	fbb8 f1f6 	udiv	r1, r8, r6
    29b2:	4821      	ldr	r0, [pc, #132]	; (2a38 <get_temperature+0x110>)
    29b4:	f7ff fd02 	bl	23bc <DbgConsole_Printf>
    29b8:	4820      	ldr	r0, [pc, #128]	; (2a3c <get_temperature+0x114>)
    29ba:	f7ff fcff 	bl	23bc <DbgConsole_Printf>
    29be:	2100      	movs	r1, #0
    29c0:	4620      	mov	r0, r4
    29c2:	f000 f96f 	bl	2ca4 <ADC_EnableTemperatureSensor>
    29c6:	68a3      	ldr	r3, [r4, #8]
    29c8:	481d      	ldr	r0, [pc, #116]	; (2a40 <get_temperature+0x118>)
    29ca:	f023 4300 	bic.w	r3, r3, #2147483648	; 0x80000000
    29ce:	60a3      	str	r3, [r4, #8]
    29d0:	f7ff fcf4 	bl	23bc <DbgConsole_Printf>
    29d4:	6f23      	ldr	r3, [r4, #112]	; 0x70
    29d6:	f8c5 9008 	str.w	r9, [r5, #8]
    29da:	f423 437e 	bic.w	r3, r3, #65024	; 0xfe00
    29de:	f443 5320 	orr.w	r3, r3, #10240	; 0x2800
    29e2:	6723      	str	r3, [r4, #112]	; 0x70
    29e4:	4620      	mov	r0, r4
    29e6:	2340      	movs	r3, #64	; 0x40
    29e8:	4629      	mov	r1, r5
    29ea:	e9c5 3a00 	strd	r3, sl, [r5]
    29ee:	f000 f8ef 	bl	2bd0 <ADC_SetConvSeqAConfig>
    29f2:	68a3      	ldr	r3, [r4, #8]
    29f4:	f043 4300 	orr.w	r3, r3, #2147483648	; 0x80000000
    29f8:	60a3      	str	r3, [r4, #8]
    29fa:	2206      	movs	r2, #6
    29fc:	4631      	mov	r1, r6
    29fe:	4620      	mov	r0, r4
    2a00:	f7ff fe34 	bl	266c <compute_estimated_sum>
    2a04:	4604      	mov	r4, r0
    2a06:	4601      	mov	r1, r0
    2a08:	480e      	ldr	r0, [pc, #56]	; (2a44 <get_temperature+0x11c>)
    2a0a:	f7ff fcd7 	bl	23bc <DbgConsole_Printf>
    2a0e:	fbb4 f1f6 	udiv	r1, r4, r6
    2a12:	480d      	ldr	r0, [pc, #52]	; (2a48 <get_temperature+0x120>)
    2a14:	f7ff fcd2 	bl	23bc <DbgConsole_Printf>
    2a18:	4632      	mov	r2, r6
    2a1a:	4641      	mov	r1, r8
    2a1c:	4620      	mov	r0, r4
    2a1e:	f7ff fe95 	bl	274c <temp_computation>
    2a22:	9b08      	ldr	r3, [sp, #32]
    2a24:	6018      	str	r0, [r3, #0]
    2a26:	e789      	b.n	293c <get_temperature+0x14>
    2a28:	0401477e 	.word	0x0401477e
    2a2c:	0002949c 	.word	0x0002949c
    2a30:	04014768 	.word	0x04014768
    2a34:	000294c7 	.word	0x000294c7
    2a38:	000294e2 	.word	0x000294e2
    2a3c:	00027c92 	.word	0x00027c92
    2a40:	000294f8 	.word	0x000294f8
    2a44:	0002951c 	.word	0x0002951c
    2a48:	00029533 	.word	0x00029533

00002a4c <Config_ADC>:
    2a4c:	b570      	push	{r4, r5, r6, lr}
    2a4e:	4c10      	ldr	r4, [pc, #64]	; (2a90 <Config_ADC+0x44>)
    2a50:	b088      	sub	sp, #32
    2a52:	2500      	movs	r5, #0
    2a54:	4606      	mov	r6, r0
    2a56:	2307      	movs	r3, #7
    2a58:	a904      	add	r1, sp, #16
    2a5a:	4620      	mov	r0, r4
    2a5c:	9305      	str	r3, [sp, #20]
    2a5e:	f88d 5010 	strb.w	r5, [sp, #16]
    2a62:	f88d 5018 	strb.w	r5, [sp, #24]
    2a66:	9507      	str	r5, [sp, #28]
    2a68:	f000 f852 	bl	2b10 <ADC_Init>
    2a6c:	2340      	movs	r3, #64	; 0x40
    2a6e:	e9cd 3501 	strd	r3, r5, [sp, #4]
    2a72:	a901      	add	r1, sp, #4
    2a74:	4b07      	ldr	r3, [pc, #28]	; (2a94 <Config_ADC+0x48>)
    2a76:	9303      	str	r3, [sp, #12]
    2a78:	4620      	mov	r0, r4
    2a7a:	f000 f8a9 	bl	2bd0 <ADC_SetConvSeqAConfig>
    2a7e:	4630      	mov	r0, r6
    2a80:	f001 f85e 	bl	3b40 <CLOCK_uDelay>
    2a84:	68a3      	ldr	r3, [r4, #8]
    2a86:	f043 4300 	orr.w	r3, r3, #2147483648	; 0x80000000
    2a8a:	60a3      	str	r3, [r4, #8]
    2a8c:	b008      	add	sp, #32
    2a8e:	bd70      	pop	{r4, r5, r6, pc}
    2a90:	40089000 	.word	0x40089000
    2a94:	01000001 	.word	0x01000001

00002a98 <Get_BattVolt>:
    2a98:	b57f      	push	{r0, r1, r2, r3, r4, r5, r6, lr}
    2a9a:	f44f 7096 	mov.w	r0, #300	; 0x12c
    2a9e:	f7ff ffd5 	bl	2a4c <Config_ADC>
    2aa2:	4e13      	ldr	r6, [pc, #76]	; (2af0 <Get_BattVolt+0x58>)
    2aa4:	2508      	movs	r5, #8
    2aa6:	2400      	movs	r4, #0
    2aa8:	68b3      	ldr	r3, [r6, #8]
    2aaa:	f043 6380 	orr.w	r3, r3, #67108864	; 0x4000000
    2aae:	60b3      	str	r3, [r6, #8]
    2ab0:	480f      	ldr	r0, [pc, #60]	; (2af0 <Get_BattVolt+0x58>)
    2ab2:	466a      	mov	r2, sp
    2ab4:	2106      	movs	r1, #6
    2ab6:	f000 f8b5 	bl	2c24 <ADC_GetChannelConversionResult>
    2aba:	2800      	cmp	r0, #0
    2abc:	d0f8      	beq.n	2ab0 <Get_BattVolt+0x18>
    2abe:	9b00      	ldr	r3, [sp, #0]
    2ac0:	3d01      	subs	r5, #1
    2ac2:	441c      	add	r4, r3
    2ac4:	d1f0      	bne.n	2aa8 <Get_BattVolt+0x10>
    2ac6:	480a      	ldr	r0, [pc, #40]	; (2af0 <Get_BattVolt+0x58>)
    2ac8:	f000 f874 	bl	2bb4 <ADC_Deinit>
    2acc:	f3c4 00cf 	ubfx	r0, r4, #3, #16
    2ad0:	f023 fe3c 	bl	2674c <__aeabi_i2d>
    2ad4:	a304      	add	r3, pc, #16	; (adr r3, 2ae8 <Get_BattVolt+0x50>)
    2ad6:	e9d3 2300 	ldrd	r2, r3, [r3]
    2ada:	f023 ffcb 	bl	26a74 <__aeabi_ddiv>
    2ade:	f024 f8d9 	bl	26c94 <__aeabi_d2uiz>
    2ae2:	b280      	uxth	r0, r0
    2ae4:	b004      	add	sp, #16
    2ae6:	bd70      	pop	{r4, r5, r6, pc}
    2ae8:	a3d70a3d 	.word	0xa3d70a3d
    2aec:	3ff23d70 	.word	0x3ff23d70
    2af0:	40089000 	.word	0x40089000

00002af4 <ADC_GetInstance.part.0>:
    2af4:	b508      	push	{r3, lr}
    2af6:	4a03      	ldr	r2, [pc, #12]	; (2b04 <ADC_GetInstance.part.0+0x10>)
    2af8:	4b03      	ldr	r3, [pc, #12]	; (2b08 <ADC_GetInstance.part.0+0x14>)
    2afa:	4804      	ldr	r0, [pc, #16]	; (2b0c <ADC_GetInstance.part.0+0x18>)
    2afc:	2125      	movs	r1, #37	; 0x25
    2afe:	f005 f8bb 	bl	7c78 <__assert_func>
    2b02:	bf00      	nop
    2b04:	000295eb 	.word	0x000295eb
    2b08:	0002954a 	.word	0x0002954a
    2b0c:	0002956c 	.word	0x0002956c

00002b10 <ADC_Init>:
    2b10:	b538      	push	{r3, r4, r5, lr}
    2b12:	4605      	mov	r5, r0
    2b14:	460c      	mov	r4, r1
    2b16:	b929      	cbnz	r1, 2b24 <ADC_Init+0x14>
    2b18:	4b20      	ldr	r3, [pc, #128]	; (2b9c <ADC_Init+0x8c>)
    2b1a:	4a21      	ldr	r2, [pc, #132]	; (2ba0 <ADC_Init+0x90>)
    2b1c:	4821      	ldr	r0, [pc, #132]	; (2ba4 <ADC_Init+0x94>)
    2b1e:	2132      	movs	r1, #50	; 0x32
    2b20:	f005 f8aa 	bl	7c78 <__assert_func>
    2b24:	4b20      	ldr	r3, [pc, #128]	; (2ba8 <ADC_Init+0x98>)
    2b26:	4298      	cmp	r0, r3
    2b28:	d135      	bne.n	2b96 <ADC_Init+0x86>
    2b2a:	201b      	movs	r0, #27
    2b2c:	f001 f8cc 	bl	3cc8 <CLOCK_EnableClock>
    2b30:	2300      	movs	r3, #0
    2b32:	666b      	str	r3, [r5, #100]	; 0x64
    2b34:	7821      	ldrb	r1, [r4, #0]
    2b36:	7922      	ldrb	r2, [r4, #4]
    2b38:	2901      	cmp	r1, #1
    2b3a:	d101      	bne.n	2b40 <ADC_Init+0x30>
    2b3c:	f442 7280 	orr.w	r2, r2, #256	; 0x100
    2b40:	7a23      	ldrb	r3, [r4, #8]
    2b42:	025b      	lsls	r3, r3, #9
    2b44:	2901      	cmp	r1, #1
    2b46:	f403 63c0 	and.w	r3, r3, #1536	; 0x600
    2b4a:	ea43 0302 	orr.w	r3, r3, r2
    2b4e:	bf01      	itttt	eq
    2b50:	68e2      	ldreq	r2, [r4, #12]
    2b52:	0312      	lsleq	r2, r2, #12
    2b54:	f402 42e0 	andeq.w	r2, r2, #28672	; 0x7000
    2b58:	4313      	orreq	r3, r2
    2b5a:	4a13      	ldr	r2, [pc, #76]	; (2ba8 <ADC_Init+0x98>)
    2b5c:	6013      	str	r3, [r2, #0]
    2b5e:	6f13      	ldr	r3, [r2, #112]	; 0x70
    2b60:	f043 0301 	orr.w	r3, r3, #1
    2b64:	6713      	str	r3, [r2, #112]	; 0x70
    2b66:	b931      	cbnz	r1, 2b76 <ADC_Init+0x66>
    2b68:	68e3      	ldr	r3, [r4, #12]
    2b6a:	6f11      	ldr	r1, [r2, #112]	; 0x70
    2b6c:	021b      	lsls	r3, r3, #8
    2b6e:	f403 7380 	and.w	r3, r3, #256	; 0x100
    2b72:	430b      	orrs	r3, r1
    2b74:	6713      	str	r3, [r2, #112]	; 0x70
    2b76:	490d      	ldr	r1, [pc, #52]	; (2bac <ADC_Init+0x9c>)
    2b78:	f44f 7096 	mov.w	r0, #300	; 0x12c
    2b7c:	f001 fcd8 	bl	4530 <SDK_DelayAtLeastUs>
    2b80:	4b0b      	ldr	r3, [pc, #44]	; (2bb0 <ADC_Init+0xa0>)
    2b82:	4a09      	ldr	r2, [pc, #36]	; (2ba8 <ADC_Init+0x98>)
    2b84:	681b      	ldr	r3, [r3, #0]
    2b86:	f013 0f01 	tst.w	r3, #1
    2b8a:	bf1c      	itt	ne
    2b8c:	085b      	lsrne	r3, r3, #1
    2b8e:	6753      	strne	r3, [r2, #116]	; 0x74
    2b90:	2301      	movs	r3, #1
    2b92:	66d3      	str	r3, [r2, #108]	; 0x6c
    2b94:	bd38      	pop	{r3, r4, r5, pc}
    2b96:	f7ff ffad 	bl	2af4 <ADC_GetInstance.part.0>
    2b9a:	bf00      	nop
    2b9c:	000295b7 	.word	0x000295b7
    2ba0:	000295fb 	.word	0x000295fb
    2ba4:	0002956c 	.word	0x0002956c
    2ba8:	40089000 	.word	0x40089000
    2bac:	02dc6c00 	.word	0x02dc6c00
    2bb0:	0009fc80 	.word	0x0009fc80

00002bb4 <ADC_Deinit>:
    2bb4:	b508      	push	{r3, lr}
    2bb6:	4b05      	ldr	r3, [pc, #20]	; (2bcc <ADC_Deinit+0x18>)
    2bb8:	4298      	cmp	r0, r3
    2bba:	d001      	beq.n	2bc0 <ADC_Deinit+0xc>
    2bbc:	f7ff ff9a 	bl	2af4 <ADC_GetInstance.part.0>
    2bc0:	e8bd 4008 	ldmia.w	sp!, {r3, lr}
    2bc4:	201b      	movs	r0, #27
    2bc6:	f000 bf4d 	b.w	3a64 <CLOCK_DisableClock>
    2bca:	bf00      	nop
    2bcc:	40089000 	.word	0x40089000

00002bd0 <ADC_SetConvSeqAConfig>:
    2bd0:	b508      	push	{r3, lr}
    2bd2:	b931      	cbnz	r1, 2be2 <ADC_SetConvSeqAConfig+0x12>
    2bd4:	4b10      	ldr	r3, [pc, #64]	; (2c18 <ADC_SetConvSeqAConfig+0x48>)
    2bd6:	4a11      	ldr	r2, [pc, #68]	; (2c1c <ADC_SetConvSeqAConfig+0x4c>)
    2bd8:	4811      	ldr	r0, [pc, #68]	; (2c20 <ADC_SetConvSeqAConfig+0x50>)
    2bda:	f44f 7199 	mov.w	r1, #306	; 0x132
    2bde:	f005 f84b 	bl	7c78 <__assert_func>
    2be2:	684b      	ldr	r3, [r1, #4]
    2be4:	780a      	ldrb	r2, [r1, #0]
    2be6:	031b      	lsls	r3, r3, #12
    2be8:	f403 337c 	and.w	r3, r3, #258048	; 0x3f000
    2bec:	4313      	orrs	r3, r2
    2bee:	7a0a      	ldrb	r2, [r1, #8]
    2bf0:	2a01      	cmp	r2, #1
    2bf2:	7a4a      	ldrb	r2, [r1, #9]
    2bf4:	bf08      	it	eq
    2bf6:	f443 2380 	orreq.w	r3, r3, #262144	; 0x40000
    2bfa:	b10a      	cbz	r2, 2c00 <ADC_SetConvSeqAConfig+0x30>
    2bfc:	f443 2300 	orr.w	r3, r3, #524288	; 0x80000
    2c00:	7aca      	ldrb	r2, [r1, #11]
    2c02:	2a01      	cmp	r2, #1
    2c04:	7a8a      	ldrb	r2, [r1, #10]
    2c06:	bf08      	it	eq
    2c08:	f043 4380 	orreq.w	r3, r3, #1073741824	; 0x40000000
    2c0c:	b10a      	cbz	r2, 2c12 <ADC_SetConvSeqAConfig+0x42>
    2c0e:	f043 5380 	orr.w	r3, r3, #268435456	; 0x10000000
    2c12:	6083      	str	r3, [r0, #8]
    2c14:	bd08      	pop	{r3, pc}
    2c16:	bf00      	nop
    2c18:	000295b7 	.word	0x000295b7
    2c1c:	00029604 	.word	0x00029604
    2c20:	0002956c 	.word	0x0002956c

00002c24 <ADC_GetChannelConversionResult>:
    2c24:	b508      	push	{r3, lr}
    2c26:	b932      	cbnz	r2, 2c36 <ADC_GetChannelConversionResult+0x12>
    2c28:	4b1a      	ldr	r3, [pc, #104]	; (2c94 <ADC_GetChannelConversionResult+0x70>)
    2c2a:	4a1b      	ldr	r2, [pc, #108]	; (2c98 <ADC_GetChannelConversionResult+0x74>)
    2c2c:	f240 11d9 	movw	r1, #473	; 0x1d9
    2c30:	481a      	ldr	r0, [pc, #104]	; (2c9c <ADC_GetChannelConversionResult+0x78>)
    2c32:	f005 f821 	bl	7c78 <__assert_func>
    2c36:	2907      	cmp	r1, #7
    2c38:	d904      	bls.n	2c44 <ADC_GetChannelConversionResult+0x20>
    2c3a:	4b19      	ldr	r3, [pc, #100]	; (2ca0 <ADC_GetChannelConversionResult+0x7c>)
    2c3c:	4a16      	ldr	r2, [pc, #88]	; (2c98 <ADC_GetChannelConversionResult+0x74>)
    2c3e:	f44f 71ed 	mov.w	r1, #474	; 0x1da
    2c42:	e7f5      	b.n	2c30 <ADC_GetChannelConversionResult+0xc>
    2c44:	3108      	adds	r1, #8
    2c46:	f850 1021 	ldr.w	r1, [r0, r1, lsl #2]
    2c4a:	2900      	cmp	r1, #0
    2c4c:	da1f      	bge.n	2c8e <ADC_GetChannelConversionResult+0x6a>
    2c4e:	6800      	ldr	r0, [r0, #0]
    2c50:	f3c0 2041 	ubfx	r0, r0, #9, #2
    2c54:	f3c1 130b 	ubfx	r3, r1, #4, #12
    2c58:	2802      	cmp	r0, #2
    2c5a:	6013      	str	r3, [r2, #0]
    2c5c:	d013      	beq.n	2c86 <ADC_GetChannelConversionResult+0x62>
    2c5e:	2803      	cmp	r0, #3
    2c60:	d013      	beq.n	2c8a <ADC_GetChannelConversionResult+0x66>
    2c62:	2801      	cmp	r0, #1
    2c64:	d101      	bne.n	2c6a <ADC_GetChannelConversionResult+0x46>
    2c66:	089b      	lsrs	r3, r3, #2
    2c68:	6013      	str	r3, [r2, #0]
    2c6a:	f3c1 4301 	ubfx	r3, r1, #16, #2
    2c6e:	7113      	strb	r3, [r2, #4]
    2c70:	f3c1 4381 	ubfx	r3, r1, #18, #2
    2c74:	7153      	strb	r3, [r2, #5]
    2c76:	f3c1 6383 	ubfx	r3, r1, #26, #4
    2c7a:	f3c1 7180 	ubfx	r1, r1, #30, #1
    2c7e:	6093      	str	r3, [r2, #8]
    2c80:	7311      	strb	r1, [r2, #12]
    2c82:	2001      	movs	r0, #1
    2c84:	bd08      	pop	{r3, pc}
    2c86:	091b      	lsrs	r3, r3, #4
    2c88:	e7ee      	b.n	2c68 <ADC_GetChannelConversionResult+0x44>
    2c8a:	099b      	lsrs	r3, r3, #6
    2c8c:	e7ec      	b.n	2c68 <ADC_GetChannelConversionResult+0x44>
    2c8e:	2000      	movs	r0, #0
    2c90:	e7f8      	b.n	2c84 <ADC_GetChannelConversionResult+0x60>
    2c92:	bf00      	nop
    2c94:	000295c6 	.word	0x000295c6
    2c98:	0002961a 	.word	0x0002961a
    2c9c:	0002956c 	.word	0x0002956c
    2ca0:	000295d3 	.word	0x000295d3

00002ca4 <ADC_EnableTemperatureSensor>:
    2ca4:	f04f 4380 	mov.w	r3, #1073741824	; 0x40000000
    2ca8:	b189      	cbz	r1, 2cce <ADC_EnableTemperatureSensor+0x2a>
    2caa:	2201      	movs	r2, #1
    2cac:	64da      	str	r2, [r3, #76]	; 0x4c
    2cae:	f503 3300 	add.w	r3, r3, #131072	; 0x20000
    2cb2:	2208      	movs	r2, #8
    2cb4:	f8c3 20a0 	str.w	r2, [r3, #160]	; 0xa0
    2cb8:	f8d3 20a0 	ldr.w	r2, [r3, #160]	; 0xa0
    2cbc:	f042 0201 	orr.w	r2, r2, #1
    2cc0:	f8c3 20a0 	str.w	r2, [r3, #160]	; 0xa0
    2cc4:	6f03      	ldr	r3, [r0, #112]	; 0x70
    2cc6:	f443 433e 	orr.w	r3, r3, #48640	; 0xbe00
    2cca:	6703      	str	r3, [r0, #112]	; 0x70
    2ccc:	4770      	bx	lr
    2cce:	6cdb      	ldr	r3, [r3, #76]	; 0x4c
    2cd0:	2b01      	cmp	r3, #1
    2cd2:	d1fb      	bne.n	2ccc <ADC_EnableTemperatureSensor+0x28>
    2cd4:	4b05      	ldr	r3, [pc, #20]	; (2cec <ADC_EnableTemperatureSensor+0x48>)
    2cd6:	f8c3 10a0 	str.w	r1, [r3, #160]	; 0xa0
    2cda:	6f03      	ldr	r3, [r0, #112]	; 0x70
    2cdc:	f423 433e 	bic.w	r3, r3, #48640	; 0xbe00
    2ce0:	6703      	str	r3, [r0, #112]	; 0x70
    2ce2:	6f03      	ldr	r3, [r0, #112]	; 0x70
    2ce4:	f443 5320 	orr.w	r3, r3, #10240	; 0x2800
    2ce8:	e7ef      	b.n	2cca <ADC_EnableTemperatureSensor+0x26>
    2cea:	bf00      	nop
    2cec:	40020000 	.word	0x40020000

00002cf0 <ZQ_vQueueCreate>:
    2cf0:	b538      	push	{r3, r4, r5, lr}
    2cf2:	4604      	mov	r4, r0
    2cf4:	4615      	mov	r5, r2
    2cf6:	f003 f94c 	bl	5f92 <ListInit>
    2cfa:	60e5      	str	r5, [r4, #12]
    2cfc:	bd38      	pop	{r3, r4, r5, pc}

00002cfe <ZQ_bQueueSend>:
    2cfe:	b570      	push	{r4, r5, r6, lr}
    2d00:	4604      	mov	r4, r0
    2d02:	4675      	mov	r5, lr
    2d04:	460e      	mov	r6, r1
    2d06:	f005 f87f 	bl	7e08 <OSA_InterruptDisable>
    2d0a:	4620      	mov	r0, r4
    2d0c:	f003 f980 	bl	6010 <ListGetAvailable>
    2d10:	b908      	cbnz	r0, 2d16 <ZQ_bQueueSend+0x18>
    2d12:	8963      	ldrh	r3, [r4, #10]
    2d14:	b9a3      	cbnz	r3, 2d40 <ZQ_bQueueSend+0x42>
    2d16:	462a      	mov	r2, r5
    2d18:	68e0      	ldr	r0, [r4, #12]
    2d1a:	2100      	movs	r1, #0
    2d1c:	f003 f9c4 	bl	60a8 <MEM_BufferAllocWithId>
    2d20:	4605      	mov	r5, r0
    2d22:	b168      	cbz	r0, 2d40 <ZQ_bQueueSend+0x42>
    2d24:	68e2      	ldr	r2, [r4, #12]
    2d26:	4631      	mov	r1, r6
    2d28:	f002 ff8b 	bl	5c42 <FLib_MemCpy>
    2d2c:	4629      	mov	r1, r5
    2d2e:	4620      	mov	r0, r4
    2d30:	f003 f972 	bl	6018 <ListAddTailMsg>
    2d34:	f018 f886 	bl	1ae44 <PWRM_eStartActivity>
    2d38:	f005 f864 	bl	7e04 <OSA_InterruptEnable>
    2d3c:	2001      	movs	r0, #1
    2d3e:	bd70      	pop	{r4, r5, r6, pc}
    2d40:	f005 f860 	bl	7e04 <OSA_InterruptEnable>
    2d44:	2000      	movs	r0, #0
    2d46:	e7fa      	b.n	2d3e <ZQ_bQueueSend+0x40>

00002d48 <ZQ_bQueueReceive>:
    2d48:	b570      	push	{r4, r5, r6, lr}
    2d4a:	4605      	mov	r5, r0
    2d4c:	460e      	mov	r6, r1
    2d4e:	f005 f85b 	bl	7e08 <OSA_InterruptDisable>
    2d52:	682c      	ldr	r4, [r5, #0]
    2d54:	b18c      	cbz	r4, 2d7a <ZQ_bQueueReceive+0x32>
    2d56:	4628      	mov	r0, r5
    2d58:	f003 f961 	bl	601e <ListRemoveHeadMsg>
    2d5c:	68ea      	ldr	r2, [r5, #12]
    2d5e:	4601      	mov	r1, r0
    2d60:	4604      	mov	r4, r0
    2d62:	4630      	mov	r0, r6
    2d64:	f002 ff6d 	bl	5c42 <FLib_MemCpy>
    2d68:	4620      	mov	r0, r4
    2d6a:	f003 f95e 	bl	602a <MSG_Free>
    2d6e:	f018 f86e 	bl	1ae4e <PWRM_eFinishActivity>
    2d72:	f005 f847 	bl	7e04 <OSA_InterruptEnable>
    2d76:	2001      	movs	r0, #1
    2d78:	bd70      	pop	{r4, r5, r6, pc}
    2d7a:	f005 f843 	bl	7e04 <OSA_InterruptEnable>
    2d7e:	4620      	mov	r0, r4
    2d80:	e7fa      	b.n	2d78 <ZQ_bQueueReceive+0x30>

00002d82 <ZQ_u32QueueGetQueueSize>:
    2d82:	8940      	ldrh	r0, [r0, #10]
    2d84:	4770      	bx	lr

00002d86 <ZQ_u32QueueGetQueueMessageWaiting>:
    2d86:	8900      	ldrh	r0, [r0, #8]
    2d88:	4770      	bx	lr
    2d8a:	Address 0x00002d8a is out of bounds.


00002d8c <ZTIMER_eInit>:
    2d8c:	b510      	push	{r4, lr}
    2d8e:	b158      	cbz	r0, 2da8 <ZTIMER_eInit+0x1c>
    2d90:	b151      	cbz	r1, 2da8 <ZTIMER_eInit+0x1c>
    2d92:	4a06      	ldr	r2, [pc, #24]	; (2dac <ZTIMER_eInit+0x20>)
    2d94:	2400      	movs	r4, #0
    2d96:	7111      	strb	r1, [r2, #4]
    2d98:	6090      	str	r0, [r2, #8]
    2d9a:	6014      	str	r4, [r2, #0]
    2d9c:	010a      	lsls	r2, r1, #4
    2d9e:	4621      	mov	r1, r4
    2da0:	f024 fa30 	bl	27204 <memset>
    2da4:	4620      	mov	r0, r4
    2da6:	bd10      	pop	{r4, pc}
    2da8:	2001      	movs	r0, #1
    2daa:	e7fc      	b.n	2da6 <ZTIMER_eInit+0x1a>
    2dac:	040147a0 	.word	0x040147a0

00002db0 <ZTIMER_vSleep>:
    2db0:	4a02      	ldr	r2, [pc, #8]	; (2dbc <ZTIMER_vSleep+0xc>)
    2db2:	6813      	ldr	r3, [r2, #0]
    2db4:	f023 0301 	bic.w	r3, r3, #1
    2db8:	6013      	str	r3, [r2, #0]
    2dba:	4770      	bx	lr
    2dbc:	e000e010 	.word	0xe000e010

00002dc0 <ZTIMER_vWake>:
    2dc0:	f004 bffc 	b.w	7dbc <OSA_TimeInit>

00002dc4 <ZTIMER_vTask>:
    2dc4:	e92d 43f0 	stmdb	sp!, {r4, r5, r6, r7, r8, r9, lr}
    2dc8:	4c24      	ldr	r4, [pc, #144]	; (2e5c <ZTIMER_vTask+0x98>)
    2dca:	b085      	sub	sp, #20
    2dcc:	6823      	ldr	r3, [r4, #0]
    2dce:	9302      	str	r3, [sp, #8]
    2dd0:	f005 f80c 	bl	7dec <OSA_TimeGetMsec>
    2dd4:	9003      	str	r0, [sp, #12]
    2dd6:	9a03      	ldr	r2, [sp, #12]
    2dd8:	9b02      	ldr	r3, [sp, #8]
    2dda:	429a      	cmp	r2, r3
    2ddc:	d30b      	bcc.n	2df6 <ZTIMER_vTask+0x32>
    2dde:	9b03      	ldr	r3, [sp, #12]
    2de0:	9a02      	ldr	r2, [sp, #8]
    2de2:	1a9b      	subs	r3, r3, r2
    2de4:	6023      	str	r3, [r4, #0]
    2de6:	6823      	ldr	r3, [r4, #0]
    2de8:	2b00      	cmp	r3, #0
    2dea:	d133      	bne.n	2e54 <ZTIMER_vTask+0x90>
    2dec:	9b03      	ldr	r3, [sp, #12]
    2dee:	6023      	str	r3, [r4, #0]
    2df0:	b005      	add	sp, #20
    2df2:	e8bd 83f0 	ldmia.w	sp!, {r4, r5, r6, r7, r8, r9, pc}
    2df6:	9b02      	ldr	r3, [sp, #8]
    2df8:	43db      	mvns	r3, r3
    2dfa:	6023      	str	r3, [r4, #0]
    2dfc:	9a03      	ldr	r2, [sp, #12]
    2dfe:	6823      	ldr	r3, [r4, #0]
    2e00:	4413      	add	r3, r2
    2e02:	e7ef      	b.n	2de4 <ZTIMER_vTask+0x20>
    2e04:	68a7      	ldr	r7, [r4, #8]
    2e06:	eb07 1506 	add.w	r5, r7, r6, lsl #4
    2e0a:	ea4f 1906 	mov.w	r9, r6, lsl #4
    2e0e:	786b      	ldrb	r3, [r5, #1]
    2e10:	2b02      	cmp	r3, #2
    2e12:	d106      	bne.n	2e22 <ZTIMER_vTask+0x5e>
    2e14:	686b      	ldr	r3, [r5, #4]
    2e16:	6822      	ldr	r2, [r4, #0]
    2e18:	4293      	cmp	r3, r2
    2e1a:	d907      	bls.n	2e2c <ZTIMER_vTask+0x68>
    2e1c:	6822      	ldr	r2, [r4, #0]
    2e1e:	1a9b      	subs	r3, r3, r2
    2e20:	606b      	str	r3, [r5, #4]
    2e22:	3601      	adds	r6, #1
    2e24:	7923      	ldrb	r3, [r4, #4]
    2e26:	429e      	cmp	r6, r3
    2e28:	dbec      	blt.n	2e04 <ZTIMER_vTask+0x40>
    2e2a:	e7df      	b.n	2dec <ZTIMER_vTask+0x28>
    2e2c:	a801      	add	r0, sp, #4
    2e2e:	f004 ffed 	bl	7e0c <OSA_InterruptEnableRestricted>
    2e32:	f885 8001 	strb.w	r8, [r5, #1]
    2e36:	f817 3009 	ldrb.w	r3, [r7, r9]
    2e3a:	07db      	lsls	r3, r3, #31
    2e3c:	d501      	bpl.n	2e42 <ZTIMER_vTask+0x7e>
    2e3e:	f018 f806 	bl	1ae4e <PWRM_eFinishActivity>
    2e42:	a801      	add	r0, sp, #4
    2e44:	f004 ffef 	bl	7e26 <OSA_InterruptEnableRestore>
    2e48:	68eb      	ldr	r3, [r5, #12]
    2e4a:	2b00      	cmp	r3, #0
    2e4c:	d0e9      	beq.n	2e22 <ZTIMER_vTask+0x5e>
    2e4e:	68a8      	ldr	r0, [r5, #8]
    2e50:	4798      	blx	r3
    2e52:	e7e6      	b.n	2e22 <ZTIMER_vTask+0x5e>
    2e54:	2600      	movs	r6, #0
    2e56:	f04f 0803 	mov.w	r8, #3
    2e5a:	e7e3      	b.n	2e24 <ZTIMER_vTask+0x60>
    2e5c:	040147a0 	.word	0x040147a0

00002e60 <ZTIMER_eOpen>:
    2e60:	b5f0      	push	{r4, r5, r6, r7, lr}
    2e62:	4607      	mov	r7, r0
    2e64:	480b      	ldr	r0, [pc, #44]	; (2e94 <ZTIMER_eOpen+0x34>)
    2e66:	f890 c004 	ldrb.w	ip, [r0, #4]
    2e6a:	6886      	ldr	r6, [r0, #8]
    2e6c:	2500      	movs	r5, #0
    2e6e:	45ac      	cmp	ip, r5
    2e70:	dc01      	bgt.n	2e76 <ZTIMER_eOpen+0x16>
    2e72:	2001      	movs	r0, #1
    2e74:	e00a      	b.n	2e8c <ZTIMER_eOpen+0x2c>
    2e76:	4634      	mov	r4, r6
    2e78:	7870      	ldrb	r0, [r6, #1]
    2e7a:	3610      	adds	r6, #16
    2e7c:	b938      	cbnz	r0, 2e8e <ZTIMER_eOpen+0x2e>
    2e7e:	7023      	strb	r3, [r4, #0]
    2e80:	2301      	movs	r3, #1
    2e82:	e9c4 2102 	strd	r2, r1, [r4, #8]
    2e86:	6060      	str	r0, [r4, #4]
    2e88:	7063      	strb	r3, [r4, #1]
    2e8a:	703d      	strb	r5, [r7, #0]
    2e8c:	bdf0      	pop	{r4, r5, r6, r7, pc}
    2e8e:	3501      	adds	r5, #1
    2e90:	e7ed      	b.n	2e6e <ZTIMER_eOpen+0xe>
    2e92:	bf00      	nop
    2e94:	040147a0 	.word	0x040147a0

00002e98 <ZTIMER_eStart>:
    2e98:	b573      	push	{r0, r1, r4, r5, r6, lr}
    2e9a:	4c13      	ldr	r4, [pc, #76]	; (2ee8 <ZTIMER_eStart+0x50>)
    2e9c:	7923      	ldrb	r3, [r4, #4]
    2e9e:	4283      	cmp	r3, r0
    2ea0:	460d      	mov	r5, r1
    2ea2:	d31e      	bcc.n	2ee2 <ZTIMER_eStart+0x4a>
    2ea4:	68a3      	ldr	r3, [r4, #8]
    2ea6:	0106      	lsls	r6, r0, #4
    2ea8:	eb03 1000 	add.w	r0, r3, r0, lsl #4
    2eac:	7843      	ldrb	r3, [r0, #1]
    2eae:	b1c3      	cbz	r3, 2ee2 <ZTIMER_eStart+0x4a>
    2eb0:	b1b9      	cbz	r1, 2ee2 <ZTIMER_eStart+0x4a>
    2eb2:	a801      	add	r0, sp, #4
    2eb4:	f004 ffaa 	bl	7e0c <OSA_InterruptEnableRestricted>
    2eb8:	68a3      	ldr	r3, [r4, #8]
    2eba:	199a      	adds	r2, r3, r6
    2ebc:	5d9b      	ldrb	r3, [r3, r6]
    2ebe:	07db      	lsls	r3, r3, #31
    2ec0:	d504      	bpl.n	2ecc <ZTIMER_eStart+0x34>
    2ec2:	7853      	ldrb	r3, [r2, #1]
    2ec4:	2b02      	cmp	r3, #2
    2ec6:	d001      	beq.n	2ecc <ZTIMER_eStart+0x34>
    2ec8:	f017 ffbc 	bl	1ae44 <PWRM_eStartActivity>
    2ecc:	68a3      	ldr	r3, [r4, #8]
    2ece:	4433      	add	r3, r6
    2ed0:	2202      	movs	r2, #2
    2ed2:	a801      	add	r0, sp, #4
    2ed4:	605d      	str	r5, [r3, #4]
    2ed6:	705a      	strb	r2, [r3, #1]
    2ed8:	f004 ffa5 	bl	7e26 <OSA_InterruptEnableRestore>
    2edc:	2000      	movs	r0, #0
    2ede:	b002      	add	sp, #8
    2ee0:	bd70      	pop	{r4, r5, r6, pc}
    2ee2:	2001      	movs	r0, #1
    2ee4:	e7fb      	b.n	2ede <ZTIMER_eStart+0x46>
    2ee6:	bf00      	nop
    2ee8:	040147a0 	.word	0x040147a0

00002eec <ZTIMER_eStop>:
    2eec:	b537      	push	{r0, r1, r2, r4, r5, lr}
    2eee:	4c11      	ldr	r4, [pc, #68]	; (2f34 <ZTIMER_eStop+0x48>)
    2ef0:	7923      	ldrb	r3, [r4, #4]
    2ef2:	4283      	cmp	r3, r0
    2ef4:	d31c      	bcc.n	2f30 <ZTIMER_eStop+0x44>
    2ef6:	68a3      	ldr	r3, [r4, #8]
    2ef8:	0105      	lsls	r5, r0, #4
    2efa:	eb03 1000 	add.w	r0, r3, r0, lsl #4
    2efe:	7843      	ldrb	r3, [r0, #1]
    2f00:	b1b3      	cbz	r3, 2f30 <ZTIMER_eStop+0x44>
    2f02:	a801      	add	r0, sp, #4
    2f04:	f004 ff82 	bl	7e0c <OSA_InterruptEnableRestricted>
    2f08:	68a3      	ldr	r3, [r4, #8]
    2f0a:	195a      	adds	r2, r3, r5
    2f0c:	5d5b      	ldrb	r3, [r3, r5]
    2f0e:	07db      	lsls	r3, r3, #31
    2f10:	d504      	bpl.n	2f1c <ZTIMER_eStop+0x30>
    2f12:	7853      	ldrb	r3, [r2, #1]
    2f14:	2b02      	cmp	r3, #2
    2f16:	d101      	bne.n	2f1c <ZTIMER_eStop+0x30>
    2f18:	f017 ff99 	bl	1ae4e <PWRM_eFinishActivity>
    2f1c:	68a3      	ldr	r3, [r4, #8]
    2f1e:	442b      	add	r3, r5
    2f20:	2201      	movs	r2, #1
    2f22:	a801      	add	r0, sp, #4
    2f24:	705a      	strb	r2, [r3, #1]
    2f26:	f004 ff7e 	bl	7e26 <OSA_InterruptEnableRestore>
    2f2a:	2000      	movs	r0, #0
    2f2c:	b003      	add	sp, #12
    2f2e:	bd30      	pop	{r4, r5, pc}
    2f30:	2001      	movs	r0, #1
    2f32:	e7fb      	b.n	2f2c <ZTIMER_eStop+0x40>
    2f34:	040147a0 	.word	0x040147a0

00002f38 <ZTIMER_eGetState>:
    2f38:	4b02      	ldr	r3, [pc, #8]	; (2f44 <ZTIMER_eGetState+0xc>)
    2f3a:	689b      	ldr	r3, [r3, #8]
    2f3c:	eb03 1300 	add.w	r3, r3, r0, lsl #4
    2f40:	7858      	ldrb	r0, [r3, #1]
    2f42:	4770      	bx	lr
    2f44:	040147a0 	.word	0x040147a0

00002f48 <ZPS_pau8GetBdbDistributedLinkKey>:
    2f48:	4800      	ldr	r0, [pc, #0]	; (2f4c <ZPS_pau8GetBdbDistributedLinkKey+0x4>)
    2f4a:	4770      	bx	lr
    2f4c:	04012888 	.word	0x04012888

00002f50 <zps_bAplZdpUnpackIeeeAddressResponse.part.0>:
    2f50:	e92d 41f0 	stmdb	sp!, {r4, r5, r6, r7, r8, lr}
    2f54:	6987      	ldr	r7, [r0, #24]
    2f56:	8c42      	ldrh	r2, [r0, #34]	; 0x22
    2f58:	683b      	ldr	r3, [r7, #0]
    2f5a:	460c      	mov	r4, r1
    2f5c:	7819      	ldrb	r1, [r3, #0]
    2f5e:	f884 1082 	strb.w	r1, [r4, #130]	; 0x82
    2f62:	f8a4 2080 	strh.w	r2, [r4, #128]	; 0x80
    2f66:	785a      	ldrb	r2, [r3, #1]
    2f68:	4623      	mov	r3, r4
    2f6a:	2102      	movs	r1, #2
    2f6c:	f803 2b08 	strb.w	r2, [r3], #8
    2f70:	4638      	mov	r0, r7
    2f72:	4a17      	ldr	r2, [pc, #92]	; (2fd0 <zps_bAplZdpUnpackIeeeAddressResponse.part.0+0x80>)
    2f74:	f00a fd70 	bl	da58 <PDUM_u16APduInstanceReadNBO>
    2f78:	1c83      	adds	r3, r0, #2
    2f7a:	4605      	mov	r5, r0
    2f7c:	6838      	ldr	r0, [r7, #0]
    2f7e:	4418      	add	r0, r3
    2f80:	f00d fc5f 	bl	10842 <u16Read16Nbo>
    2f84:	8220      	strh	r0, [r4, #16]
    2f86:	4638      	mov	r0, r7
    2f88:	f00a fdcd 	bl	db26 <PDUM_u16APduInstanceGetPayloadSize>
    2f8c:	280c      	cmp	r0, #12
    2f8e:	d91c      	bls.n	2fca <zps_bAplZdpUnpackIeeeAddressResponse.part.0+0x7a>
    2f90:	7826      	ldrb	r6, [r4, #0]
    2f92:	b966      	cbnz	r6, 2fae <zps_bAplZdpUnpackIeeeAddressResponse.part.0+0x5e>
    2f94:	683b      	ldr	r3, [r7, #0]
    2f96:	442b      	add	r3, r5
    2f98:	791a      	ldrb	r2, [r3, #4]
    2f9a:	74a2      	strb	r2, [r4, #18]
    2f9c:	795b      	ldrb	r3, [r3, #5]
    2f9e:	74e3      	strb	r3, [r4, #19]
    2fa0:	b18a      	cbz	r2, 2fc6 <zps_bAplZdpUnpackIeeeAddressResponse.part.0+0x76>
    2fa2:	3506      	adds	r5, #6
    2fa4:	f104 0830 	add.w	r8, r4, #48	; 0x30
    2fa8:	7ca3      	ldrb	r3, [r4, #18]
    2faa:	429e      	cmp	r6, r3
    2fac:	d302      	bcc.n	2fb4 <zps_bAplZdpUnpackIeeeAddressResponse.part.0+0x64>
    2fae:	2001      	movs	r0, #1
    2fb0:	e8bd 81f0 	ldmia.w	sp!, {r4, r5, r6, r7, r8, pc}
    2fb4:	6838      	ldr	r0, [r7, #0]
    2fb6:	4428      	add	r0, r5
    2fb8:	f00d fc43 	bl	10842 <u16Read16Nbo>
    2fbc:	3502      	adds	r5, #2
    2fbe:	f828 0b02 	strh.w	r0, [r8], #2
    2fc2:	3601      	adds	r6, #1
    2fc4:	e7f0      	b.n	2fa8 <zps_bAplZdpUnpackIeeeAddressResponse.part.0+0x58>
    2fc6:	6162      	str	r2, [r4, #20]
    2fc8:	e7f1      	b.n	2fae <zps_bAplZdpUnpackIeeeAddressResponse.part.0+0x5e>
    2fca:	2300      	movs	r3, #0
    2fcc:	74a3      	strb	r3, [r4, #18]
    2fce:	e7ee      	b.n	2fae <zps_bAplZdpUnpackIeeeAddressResponse.part.0+0x5e>
    2fd0:	0002b01f 	.word	0x0002b01f

00002fd4 <zps_bAplZdpUnpackIeeeAddressResponse>:
    2fd4:	b108      	cbz	r0, 2fda <zps_bAplZdpUnpackIeeeAddressResponse+0x6>
    2fd6:	f7ff bfbb 	b.w	2f50 <zps_bAplZdpUnpackIeeeAddressResponse.part.0>
    2fda:	4770      	bx	lr

00002fdc <zps_bAplZdpUnpackNodeDescResponse>:
    2fdc:	b538      	push	{r3, r4, r5, lr}
    2fde:	460c      	mov	r4, r1
    2fe0:	2800      	cmp	r0, #0
    2fe2:	d030      	beq.n	3046 <zps_bAplZdpUnpackNodeDescResponse+0x6a>
    2fe4:	6985      	ldr	r5, [r0, #24]
    2fe6:	8c43      	ldrh	r3, [r0, #34]	; 0x22
    2fe8:	6828      	ldr	r0, [r5, #0]
    2fea:	7802      	ldrb	r2, [r0, #0]
    2fec:	f881 2082 	strb.w	r2, [r1, #130]	; 0x82
    2ff0:	f8a1 3080 	strh.w	r3, [r1, #128]	; 0x80
    2ff4:	7843      	ldrb	r3, [r0, #1]
    2ff6:	700b      	strb	r3, [r1, #0]
    2ff8:	3002      	adds	r0, #2
    2ffa:	f00d fc22 	bl	10842 <u16Read16Nbo>
    2ffe:	7823      	ldrb	r3, [r4, #0]
    3000:	8060      	strh	r0, [r4, #2]
    3002:	bb0b      	cbnz	r3, 3048 <zps_bAplZdpUnpackNodeDescResponse+0x6c>
    3004:	6828      	ldr	r0, [r5, #0]
    3006:	3004      	adds	r0, #4
    3008:	f00d fc1b 	bl	10842 <u16Read16Nbo>
    300c:	80a0      	strh	r0, [r4, #4]
    300e:	6828      	ldr	r0, [r5, #0]
    3010:	7983      	ldrb	r3, [r0, #6]
    3012:	7223      	strb	r3, [r4, #8]
    3014:	3007      	adds	r0, #7
    3016:	f00d fc14 	bl	10842 <u16Read16Nbo>
    301a:	8160      	strh	r0, [r4, #10]
    301c:	6828      	ldr	r0, [r5, #0]
    301e:	7a43      	ldrb	r3, [r0, #9]
    3020:	7323      	strb	r3, [r4, #12]
    3022:	300a      	adds	r0, #10
    3024:	f00d fc0d 	bl	10842 <u16Read16Nbo>
    3028:	81e0      	strh	r0, [r4, #14]
    302a:	6828      	ldr	r0, [r5, #0]
    302c:	300c      	adds	r0, #12
    302e:	f00d fc08 	bl	10842 <u16Read16Nbo>
    3032:	8220      	strh	r0, [r4, #16]
    3034:	6828      	ldr	r0, [r5, #0]
    3036:	300e      	adds	r0, #14
    3038:	f00d fc03 	bl	10842 <u16Read16Nbo>
    303c:	682b      	ldr	r3, [r5, #0]
    303e:	8260      	strh	r0, [r4, #18]
    3040:	7c1b      	ldrb	r3, [r3, #16]
    3042:	7523      	strb	r3, [r4, #20]
    3044:	2001      	movs	r0, #1
    3046:	bd38      	pop	{r3, r4, r5, pc}
    3048:	2214      	movs	r2, #20
    304a:	2100      	movs	r1, #0
    304c:	1d20      	adds	r0, r4, #4
    304e:	f024 f8d9 	bl	27204 <memset>
    3052:	e7f7      	b.n	3044 <zps_bAplZdpUnpackNodeDescResponse+0x68>

00003054 <zps_bAplZdpUnpackSimpleDescResponse>:
    3054:	e92d 43f8 	stmdb	sp!, {r3, r4, r5, r6, r7, r8, r9, lr}
    3058:	460c      	mov	r4, r1
    305a:	2800      	cmp	r0, #0
    305c:	d03e      	beq.n	30dc <zps_bAplZdpUnpackSimpleDescResponse+0x88>
    305e:	6986      	ldr	r6, [r0, #24]
    3060:	8c43      	ldrh	r3, [r0, #34]	; 0x22
    3062:	6830      	ldr	r0, [r6, #0]
    3064:	7802      	ldrb	r2, [r0, #0]
    3066:	f881 2082 	strb.w	r2, [r1, #130]	; 0x82
    306a:	f8a1 3080 	strh.w	r3, [r1, #128]	; 0x80
    306e:	7843      	ldrb	r3, [r0, #1]
    3070:	700b      	strb	r3, [r1, #0]
    3072:	3002      	adds	r0, #2
    3074:	f00d fbe5 	bl	10842 <u16Read16Nbo>
    3078:	8060      	strh	r0, [r4, #2]
    307a:	6830      	ldr	r0, [r6, #0]
    307c:	7825      	ldrb	r5, [r4, #0]
    307e:	7903      	ldrb	r3, [r0, #4]
    3080:	7123      	strb	r3, [r4, #4]
    3082:	2d00      	cmp	r5, #0
    3084:	d13c      	bne.n	3100 <zps_bAplZdpUnpackSimpleDescResponse+0xac>
    3086:	7943      	ldrb	r3, [r0, #5]
    3088:	7223      	strb	r3, [r4, #8]
    308a:	3006      	adds	r0, #6
    308c:	f00d fbd9 	bl	10842 <u16Read16Nbo>
    3090:	8160      	strh	r0, [r4, #10]
    3092:	6830      	ldr	r0, [r6, #0]
    3094:	3008      	adds	r0, #8
    3096:	f00d fbd4 	bl	10842 <u16Read16Nbo>
    309a:	6833      	ldr	r3, [r6, #0]
    309c:	81a0      	strh	r0, [r4, #12]
    309e:	7a9a      	ldrb	r2, [r3, #10]
    30a0:	7422      	strb	r2, [r4, #16]
    30a2:	7adb      	ldrb	r3, [r3, #11]
    30a4:	7523      	strb	r3, [r4, #20]
    30a6:	f104 0730 	add.w	r7, r4, #48	; 0x30
    30aa:	46b8      	mov	r8, r7
    30ac:	6830      	ldr	r0, [r6, #0]
    30ae:	006b      	lsls	r3, r5, #1
    30b0:	f103 020c 	add.w	r2, r3, #12
    30b4:	4410      	add	r0, r2
    30b6:	7d22      	ldrb	r2, [r4, #20]
    30b8:	4295      	cmp	r5, r2
    30ba:	d311      	bcc.n	30e0 <zps_bAplZdpUnpackSimpleDescResponse+0x8c>
    30bc:	f8c4 8018 	str.w	r8, [r4, #24]
    30c0:	3518      	adds	r5, #24
    30c2:	f103 090d 	add.w	r9, r3, #13
    30c6:	eb04 0545 	add.w	r5, r4, r5, lsl #1
    30ca:	7803      	ldrb	r3, [r0, #0]
    30cc:	7723      	strb	r3, [r4, #28]
    30ce:	46a8      	mov	r8, r5
    30d0:	2700      	movs	r7, #0
    30d2:	7f23      	ldrb	r3, [r4, #28]
    30d4:	429f      	cmp	r7, r3
    30d6:	d309      	bcc.n	30ec <zps_bAplZdpUnpackSimpleDescResponse+0x98>
    30d8:	6225      	str	r5, [r4, #32]
    30da:	2001      	movs	r0, #1
    30dc:	e8bd 83f8 	ldmia.w	sp!, {r3, r4, r5, r6, r7, r8, r9, pc}
    30e0:	f00d fbaf 	bl	10842 <u16Read16Nbo>
    30e4:	3501      	adds	r5, #1
    30e6:	f827 0b02 	strh.w	r0, [r7], #2
    30ea:	e7df      	b.n	30ac <zps_bAplZdpUnpackSimpleDescResponse+0x58>
    30ec:	6830      	ldr	r0, [r6, #0]
    30ee:	4448      	add	r0, r9
    30f0:	f00d fba7 	bl	10842 <u16Read16Nbo>
    30f4:	f109 0902 	add.w	r9, r9, #2
    30f8:	f828 0b02 	strh.w	r0, [r8], #2
    30fc:	3701      	adds	r7, #1
    30fe:	e7e8      	b.n	30d2 <zps_bAplZdpUnpackSimpleDescResponse+0x7e>
    3100:	221c      	movs	r2, #28
    3102:	2100      	movs	r1, #0
    3104:	f104 0008 	add.w	r0, r4, #8
    3108:	f024 f87c 	bl	27204 <memset>
    310c:	e7e5      	b.n	30da <zps_bAplZdpUnpackSimpleDescResponse+0x86>
    310e:	Address 0x0000310e is out of bounds.


00003110 <ZPS_bAppAddBeaconFilter>:
    3110:	4b01      	ldr	r3, [pc, #4]	; (3118 <ZPS_bAppAddBeaconFilter+0x8>)
    3112:	6018      	str	r0, [r3, #0]
    3114:	4770      	bx	lr
    3116:	bf00      	nop
    3118:	040147ac 	.word	0x040147ac

0000311c <ZPS_bAppRemoveBeaconFilter>:
    311c:	4b01      	ldr	r3, [pc, #4]	; (3124 <ZPS_bAppRemoveBeaconFilter+0x8>)
    311e:	2200      	movs	r2, #0
    3120:	601a      	str	r2, [r3, #0]
    3122:	4770      	bx	lr
    3124:	040147ac 	.word	0x040147ac

00003128 <ZPS_bAppPassBeaconToHigherLayer>:
    3128:	7f83      	ldrb	r3, [r0, #30]
    312a:	2b0e      	cmp	r3, #14
    312c:	e92d 41f0 	stmdb	sp!, {r4, r5, r6, r7, r8, lr}
    3130:	4604      	mov	r4, r0
    3132:	d802      	bhi.n	313a <ZPS_bAppPassBeaconToHigherLayer+0x12>
    3134:	2000      	movs	r0, #0
    3136:	e8bd 81f0 	ldmia.w	sp!, {r4, r5, r6, r7, r8, pc}
    313a:	f890 3059 	ldrb.w	r3, [r0, #89]	; 0x59
    313e:	f003 020f 	and.w	r2, r3, #15
    3142:	3a01      	subs	r2, #1
    3144:	2a01      	cmp	r2, #1
    3146:	d8f5      	bhi.n	3134 <ZPS_bAppPassBeaconToHigherLayer+0xc>
    3148:	091b      	lsrs	r3, r3, #4
    314a:	2b02      	cmp	r3, #2
    314c:	d1f2      	bne.n	3134 <ZPS_bAppPassBeaconToHigherLayer+0xc>
    314e:	f890 6058 	ldrb.w	r6, [r0, #88]	; 0x58
    3152:	2e00      	cmp	r6, #0
    3154:	d1ee      	bne.n	3134 <ZPS_bAppPassBeaconToHigherLayer+0xc>
    3156:	4d36      	ldr	r5, [pc, #216]	; (3230 <ZPS_bAppPassBeaconToHigherLayer+0x108>)
    3158:	682b      	ldr	r3, [r5, #0]
    315a:	2b00      	cmp	r3, #0
    315c:	d037      	beq.n	31ce <ZPS_bAppPassBeaconToHigherLayer+0xa6>
    315e:	88db      	ldrh	r3, [r3, #6]
    3160:	f3c3 0208 	ubfx	r2, r3, #0, #9
    3164:	2a00      	cmp	r2, #0
    3166:	d032      	beq.n	31ce <ZPS_bAppPassBeaconToHigherLayer+0xa6>
    3168:	f003 0303 	and.w	r3, r3, #3
    316c:	2b03      	cmp	r3, #3
    316e:	d02e      	beq.n	31ce <ZPS_bAppPassBeaconToHigherLayer+0xa6>
    3170:	2b00      	cmp	r3, #0
    3172:	d151      	bne.n	3218 <ZPS_bAppPassBeaconToHigherLayer+0xf0>
    3174:	682a      	ldr	r2, [r5, #0]
    3176:	88d3      	ldrh	r3, [r2, #6]
    3178:	0699      	lsls	r1, r3, #26
    317a:	d450      	bmi.n	321e <ZPS_bAppPassBeaconToHigherLayer+0xf6>
    317c:	0719      	lsls	r1, r3, #28
    317e:	d503      	bpl.n	3188 <ZPS_bAppPassBeaconToHigherLayer+0x60>
    3180:	f894 105a 	ldrb.w	r1, [r4, #90]	; 0x5a
    3184:	09c9      	lsrs	r1, r1, #7
    3186:	d0d5      	beq.n	3134 <ZPS_bAppPassBeaconToHigherLayer+0xc>
    3188:	06df      	lsls	r7, r3, #27
    318a:	d503      	bpl.n	3194 <ZPS_bAppPassBeaconToHigherLayer+0x6c>
    318c:	f894 105a 	ldrb.w	r1, [r4, #90]	; 0x5a
    3190:	074e      	lsls	r6, r1, #29
    3192:	d5cf      	bpl.n	3134 <ZPS_bAppPassBeaconToHigherLayer+0xc>
    3194:	075d      	lsls	r5, r3, #29
    3196:	d503      	bpl.n	31a0 <ZPS_bAppPassBeaconToHigherLayer+0x78>
    3198:	7ca0      	ldrb	r0, [r4, #18]
    319a:	7a51      	ldrb	r1, [r2, #9]
    319c:	4288      	cmp	r0, r1
    319e:	d3c9      	bcc.n	3134 <ZPS_bAppPassBeaconToHigherLayer+0xc>
    31a0:	0658      	lsls	r0, r3, #25
    31a2:	d503      	bpl.n	31ac <ZPS_bAppPassBeaconToHigherLayer+0x84>
    31a4:	88e0      	ldrh	r0, [r4, #6]
    31a6:	8891      	ldrh	r1, [r2, #4]
    31a8:	4288      	cmp	r0, r1
    31aa:	d1c3      	bne.n	3134 <ZPS_bAppPassBeaconToHigherLayer+0xc>
    31ac:	0619      	lsls	r1, r3, #24
    31ae:	d508      	bpl.n	31c2 <ZPS_bAppPassBeaconToHigherLayer+0x9a>
    31b0:	7a91      	ldrb	r1, [r2, #10]
    31b2:	f894 205a 	ldrb.w	r2, [r4, #90]	; 0x5a
    31b6:	29ff      	cmp	r1, #255	; 0xff
    31b8:	f3c2 02c3 	ubfx	r2, r2, #3, #4
    31bc:	d134      	bne.n	3228 <ZPS_bAppPassBeaconToHigherLayer+0x100>
    31be:	2a00      	cmp	r2, #0
    31c0:	d1b8      	bne.n	3134 <ZPS_bAppPassBeaconToHigherLayer+0xc>
    31c2:	05da      	lsls	r2, r3, #23
    31c4:	d503      	bpl.n	31ce <ZPS_bAppPassBeaconToHigherLayer+0xa6>
    31c6:	f894 305a 	ldrb.w	r3, [r4, #90]	; 0x5a
    31ca:	079b      	lsls	r3, r3, #30
    31cc:	d5b2      	bpl.n	3134 <ZPS_bAppPassBeaconToHigherLayer+0xc>
    31ce:	2001      	movs	r0, #1
    31d0:	e7b1      	b.n	3136 <ZPS_bAppPassBeaconToHigherLayer+0xe>
    31d2:	3601      	adds	r6, #1
    31d4:	682b      	ldr	r3, [r5, #0]
    31d6:	7a1b      	ldrb	r3, [r3, #8]
    31d8:	b2f7      	uxtb	r7, r6
    31da:	42bb      	cmp	r3, r7
    31dc:	d914      	bls.n	3208 <ZPS_bAppPassBeaconToHigherLayer+0xe0>
    31de:	4640      	mov	r0, r8
    31e0:	f018 f83f 	bl	1b262 <zps_u64NwkLibFromPayload>
    31e4:	f8d5 c000 	ldr.w	ip, [r5]
    31e8:	f8dc 3000 	ldr.w	r3, [ip]
    31ec:	eb03 03c7 	add.w	r3, r3, r7, lsl #3
    31f0:	e9d3 2300 	ldrd	r2, r3, [r3]
    31f4:	428b      	cmp	r3, r1
    31f6:	bf08      	it	eq
    31f8:	4282      	cmpeq	r2, r0
    31fa:	d1ea      	bne.n	31d2 <ZPS_bAppPassBeaconToHigherLayer+0xaa>
    31fc:	f8bc 3006 	ldrh.w	r3, [ip, #6]
    3200:	07da      	lsls	r2, r3, #31
    3202:	d497      	bmi.n	3134 <ZPS_bAppPassBeaconToHigherLayer+0xc>
    3204:	079b      	lsls	r3, r3, #30
    3206:	d5e4      	bpl.n	31d2 <ZPS_bAppPassBeaconToHigherLayer+0xaa>
    3208:	682b      	ldr	r3, [r5, #0]
    320a:	88da      	ldrh	r2, [r3, #6]
    320c:	0790      	lsls	r0, r2, #30
    320e:	d5b1      	bpl.n	3174 <ZPS_bAppPassBeaconToHigherLayer+0x4c>
    3210:	7a1b      	ldrb	r3, [r3, #8]
    3212:	42bb      	cmp	r3, r7
    3214:	d1ae      	bne.n	3174 <ZPS_bAppPassBeaconToHigherLayer+0x4c>
    3216:	e78d      	b.n	3134 <ZPS_bAppPassBeaconToHigherLayer+0xc>
    3218:	f100 085b 	add.w	r8, r0, #91	; 0x5b
    321c:	e7da      	b.n	31d4 <ZPS_bAppPassBeaconToHigherLayer+0xac>
    321e:	f9b4 1016 	ldrsh.w	r1, [r4, #22]
    3222:	2900      	cmp	r1, #0
    3224:	dbaa      	blt.n	317c <ZPS_bAppPassBeaconToHigherLayer+0x54>
    3226:	e785      	b.n	3134 <ZPS_bAppPassBeaconToHigherLayer+0xc>
    3228:	4291      	cmp	r1, r2
    322a:	d8ca      	bhi.n	31c2 <ZPS_bAppPassBeaconToHigherLayer+0x9a>
    322c:	e782      	b.n	3134 <ZPS_bAppPassBeaconToHigherLayer+0xc>
    322e:	bf00      	nop
    3230:	040147ac 	.word	0x040147ac

00003234 <BOARD_InitDebugConsole>:
    3234:	b510      	push	{r4, lr}
    3236:	4808      	ldr	r0, [pc, #32]	; (3258 <BOARD_InitDebugConsole+0x24>)
    3238:	f000 fb90 	bl	395c <CLOCK_GetFreq>
    323c:	2201      	movs	r2, #1
    323e:	4603      	mov	r3, r0
    3240:	f44f 31e1 	mov.w	r1, #115200	; 0x1c200
    3244:	2000      	movs	r0, #0
    3246:	f7ff f84f 	bl	22e8 <DbgConsole_Init>
    324a:	4604      	mov	r4, r0
    324c:	f44f 70fa 	mov.w	r0, #500	; 0x1f4
    3250:	f000 fc76 	bl	3b40 <CLOCK_uDelay>
    3254:	4620      	mov	r0, r4
    3256:	bd10      	pop	{r4, pc}
    3258:	00010008 	.word	0x00010008

0000325c <BOARD_DbgDiagEnable>:
    325c:	4770      	bx	lr
    325e:	Address 0x0000325e is out of bounds.


00003260 <SystemCoreClockUpdate>:
    3260:	f04f 4380 	mov.w	r3, #1073741824	; 0x40000000
    3264:	f8d3 2280 	ldr.w	r2, [r3, #640]	; 0x280
    3268:	f002 0207 	and.w	r2, r2, #7
    326c:	2a06      	cmp	r2, #6
    326e:	d838      	bhi.n	32e2 <SystemCoreClockUpdate+0x82>
    3270:	e8df f002 	tbb	[pc, r2]
    3274:	29041810 	.word	0x29041810
    3278:	372f      	.short	0x372f
    327a:	35          	.byte	0x35
    327b:	00          	.byte	0x00
    327c:	4b1a      	ldr	r3, [pc, #104]	; (32e8 <SystemCoreClockUpdate+0x88>)
    327e:	f04f 4280 	mov.w	r2, #1073741824	; 0x40000000
    3282:	f8d2 2380 	ldr.w	r2, [r2, #896]	; 0x380
    3286:	b2d2      	uxtb	r2, r2
    3288:	3201      	adds	r2, #1
    328a:	fbb3 f3f2 	udiv	r3, r3, r2
    328e:	4a17      	ldr	r2, [pc, #92]	; (32ec <SystemCoreClockUpdate+0x8c>)
    3290:	6013      	str	r3, [r2, #0]
    3292:	4770      	bx	lr
    3294:	4b16      	ldr	r3, [pc, #88]	; (32f0 <SystemCoreClockUpdate+0x90>)
    3296:	4a17      	ldr	r2, [pc, #92]	; (32f4 <SystemCoreClockUpdate+0x94>)
    3298:	6c1b      	ldr	r3, [r3, #64]	; 0x40
    329a:	f413 1380 	ands.w	r3, r3, #1048576	; 0x100000
    329e:	bf18      	it	ne
    32a0:	4613      	movne	r3, r2
    32a2:	e7ec      	b.n	327e <SystemCoreClockUpdate+0x1e>
    32a4:	f8d3 3284 	ldr.w	r3, [r3, #644]	; 0x284
    32a8:	f013 0f02 	tst.w	r3, #2
    32ac:	4b10      	ldr	r3, [pc, #64]	; (32f0 <SystemCoreClockUpdate+0x90>)
    32ae:	f8d3 30b8 	ldr.w	r3, [r3, #184]	; 0xb8
    32b2:	d005      	beq.n	32c0 <SystemCoreClockUpdate+0x60>
    32b4:	f013 6380 	ands.w	r3, r3, #67108864	; 0x4000000
    32b8:	bf18      	it	ne
    32ba:	f44f 4300 	movne.w	r3, #32768	; 0x8000
    32be:	e7de      	b.n	327e <SystemCoreClockUpdate+0x1e>
    32c0:	f013 7300 	ands.w	r3, r3, #33554432	; 0x2000000
    32c4:	e7f8      	b.n	32b8 <SystemCoreClockUpdate+0x58>
    32c6:	4b0a      	ldr	r3, [pc, #40]	; (32f0 <SystemCoreClockUpdate+0x90>)
    32c8:	4a07      	ldr	r2, [pc, #28]	; (32e8 <SystemCoreClockUpdate+0x88>)
    32ca:	6c1b      	ldr	r3, [r3, #64]	; 0x40
    32cc:	f413 1300 	ands.w	r3, r3, #2097152	; 0x200000
    32d0:	e7e5      	b.n	329e <SystemCoreClockUpdate+0x3e>
    32d2:	4b07      	ldr	r3, [pc, #28]	; (32f0 <SystemCoreClockUpdate+0x90>)
    32d4:	4a08      	ldr	r2, [pc, #32]	; (32f8 <SystemCoreClockUpdate+0x98>)
    32d6:	6c1b      	ldr	r3, [r3, #64]	; 0x40
    32d8:	f413 0380 	ands.w	r3, r3, #4194304	; 0x400000
    32dc:	e7df      	b.n	329e <SystemCoreClockUpdate+0x3e>
    32de:	4b07      	ldr	r3, [pc, #28]	; (32fc <SystemCoreClockUpdate+0x9c>)
    32e0:	e7cd      	b.n	327e <SystemCoreClockUpdate+0x1e>
    32e2:	2300      	movs	r3, #0
    32e4:	e7cb      	b.n	327e <SystemCoreClockUpdate+0x1e>
    32e6:	bf00      	nop
    32e8:	01e84800 	.word	0x01e84800
    32ec:	040128a8 	.word	0x040128a8
    32f0:	40012000 	.word	0x40012000
    32f4:	00b71b00 	.word	0x00b71b00
    32f8:	02dc6c00 	.word	0x02dc6c00
    32fc:	000f4240 	.word	0x000f4240

00003300 <SystemInit>:
    3300:	b508      	push	{r3, lr}
    3302:	f7ff ffad 	bl	3260 <SystemCoreClockUpdate>
    3306:	4a0c      	ldr	r2, [pc, #48]	; (3338 <SystemInit+0x38>)
    3308:	68d3      	ldr	r3, [r2, #12]
    330a:	f423 63e0 	bic.w	r3, r3, #1792	; 0x700
    330e:	041b      	lsls	r3, r3, #16
    3310:	0c1b      	lsrs	r3, r3, #16
    3312:	f043 63bf 	orr.w	r3, r3, #100139008	; 0x5f80000
    3316:	f443 3301 	orr.w	r3, r3, #132096	; 0x20400
    331a:	60d3      	str	r3, [r2, #12]
    331c:	4b07      	ldr	r3, [pc, #28]	; (333c <SystemInit+0x3c>)
    331e:	681b      	ldr	r3, [r3, #0]
    3320:	07da      	lsls	r2, r3, #31
    3322:	d507      	bpl.n	3334 <SystemInit+0x34>
    3324:	4906      	ldr	r1, [pc, #24]	; (3340 <SystemInit+0x40>)
    3326:	6c4a      	ldr	r2, [r1, #68]	; 0x44
    3328:	f3c3 0346 	ubfx	r3, r3, #1, #7
    332c:	f022 027f 	bic.w	r2, r2, #127	; 0x7f
    3330:	4313      	orrs	r3, r2
    3332:	644b      	str	r3, [r1, #68]	; 0x44
    3334:	bd08      	pop	{r3, pc}
    3336:	bf00      	nop
    3338:	e000ed00 	.word	0xe000ed00
    333c:	0009fcd0 	.word	0x0009fcd0
    3340:	40012000 	.word	0x40012000

00003344 <DMIC0_IRQHandler>:
    3344:	b508      	push	{r3, lr}
    3346:	f7fc ff2b 	bl	1a0 <ADC_SEQA_IRQHandler>
    334a:	bd08      	pop	{r3, pc}

0000334c <CIC_IRB_IRQHandler>:
    334c:	b508      	push	{r3, lr}
    334e:	f7fc ff27 	bl	1a0 <ADC_SEQA_IRQHandler>
    3352:	bd08      	pop	{r3, pc}

00003354 <HWVAD0_IRQHandler>:
    3354:	b508      	push	{r3, lr}
    3356:	f7fc ff23 	bl	1a0 <ADC_SEQA_IRQHandler>
    335a:	bd08      	pop	{r3, pc}

0000335c <PINT0_IRQHandler>:
    335c:	b508      	push	{r3, lr}
    335e:	f7fc ff1f 	bl	1a0 <ADC_SEQA_IRQHandler>
    3362:	bd08      	pop	{r3, pc}

00003364 <PINT1_IRQHandler>:
    3364:	b508      	push	{r3, lr}
    3366:	f7fc ff1b 	bl	1a0 <ADC_SEQA_IRQHandler>
    336a:	bd08      	pop	{r3, pc}

0000336c <PINT2_IRQHandler>:
    336c:	b508      	push	{r3, lr}
    336e:	f7fc ff17 	bl	1a0 <ADC_SEQA_IRQHandler>
    3372:	bd08      	pop	{r3, pc}

00003374 <PINT3_IRQHandler>:
    3374:	b508      	push	{r3, lr}
    3376:	f7fc ff13 	bl	1a0 <ADC_SEQA_IRQHandler>
    337a:	bd08      	pop	{r3, pc}

0000337c <GINT0_IRQHandler>:
    337c:	b508      	push	{r3, lr}
    337e:	f7ff f8bd 	bl	24fc <GINT0_DriverIRQHandler>
    3382:	bd08      	pop	{r3, pc}

00003384 <CTIMER0_IRQHandler>:
    3384:	b508      	push	{r3, lr}
    3386:	f003 f9f9 	bl	677c <CTIMER0_DriverIRQHandler>
    338a:	bd08      	pop	{r3, pc}

0000338c <CTIMER1_IRQHandler>:
    338c:	b508      	push	{r3, lr}
    338e:	f003 f9fc 	bl	678a <CTIMER1_DriverIRQHandler>
    3392:	bd08      	pop	{r3, pc}

00003394 <FLEXCOMM0_IRQHandler>:
    3394:	b508      	push	{r3, lr}
    3396:	f000 ff5b 	bl	4250 <FLEXCOMM0_DriverIRQHandler>
    339a:	bd08      	pop	{r3, pc}

0000339c <FLEXCOMM1_IRQHandler>:
    339c:	b508      	push	{r3, lr}
    339e:	f000 ff75 	bl	428c <FLEXCOMM1_DriverIRQHandler>
    33a2:	bd08      	pop	{r3, pc}

000033a4 <FLEXCOMM2_IRQHandler>:
    33a4:	b508      	push	{r3, lr}
    33a6:	f000 ff8f 	bl	42c8 <FLEXCOMM2_DriverIRQHandler>
    33aa:	bd08      	pop	{r3, pc}

000033ac <FLEXCOMM3_IRQHandler>:
    33ac:	b508      	push	{r3, lr}
    33ae:	f000 ffa9 	bl	4304 <FLEXCOMM3_DriverIRQHandler>
    33b2:	bd08      	pop	{r3, pc}

000033b4 <FLEXCOMM4_IRQHandler>:
    33b4:	b508      	push	{r3, lr}
    33b6:	f000 ffc1 	bl	433c <FLEXCOMM4_DriverIRQHandler>
    33ba:	bd08      	pop	{r3, pc}

000033bc <FLEXCOMM5_IRQHandler>:
    33bc:	b508      	push	{r3, lr}
    33be:	f000 ffdb 	bl	4378 <FLEXCOMM5_DriverIRQHandler>
    33c2:	bd08      	pop	{r3, pc}

000033c4 <FLEXCOMM6_IRQHandler>:
    33c4:	b508      	push	{r3, lr}
    33c6:	f000 fff5 	bl	43b4 <FLEXCOMM6_DriverIRQHandler>
    33ca:	bd08      	pop	{r3, pc}

000033cc <RTC_IRQHandler>:
    33cc:	b508      	push	{r3, lr}
    33ce:	f7fc fee7 	bl	1a0 <ADC_SEQA_IRQHandler>
    33d2:	Address 0x000033d2 is out of bounds.


000033d4 <WWDT_GetInstance>:
    33d4:	b508      	push	{r3, lr}
    33d6:	4b05      	ldr	r3, [pc, #20]	; (33ec <WWDT_GetInstance+0x18>)
    33d8:	4298      	cmp	r0, r3
    33da:	d005      	beq.n	33e8 <WWDT_GetInstance+0x14>
    33dc:	4b04      	ldr	r3, [pc, #16]	; (33f0 <WWDT_GetInstance+0x1c>)
    33de:	4a05      	ldr	r2, [pc, #20]	; (33f4 <WWDT_GetInstance+0x20>)
    33e0:	4805      	ldr	r0, [pc, #20]	; (33f8 <WWDT_GetInstance+0x24>)
    33e2:	2141      	movs	r1, #65	; 0x41
    33e4:	f004 fc48 	bl	7c78 <__assert_func>
    33e8:	2000      	movs	r0, #0
    33ea:	bd08      	pop	{r3, pc}
    33ec:	4000a000 	.word	0x4000a000
    33f0:	00029639 	.word	0x00029639
    33f4:	000296c9 	.word	0x000296c9
    33f8:	00029653 	.word	0x00029653

000033fc <WWDT_GetDefaultConfig>:
    33fc:	b510      	push	{r4, lr}
    33fe:	4604      	mov	r4, r0
    3400:	b928      	cbnz	r0, 340e <WWDT_GetDefaultConfig+0x12>
    3402:	4b0a      	ldr	r3, [pc, #40]	; (342c <WWDT_GetDefaultConfig+0x30>)
    3404:	4a0a      	ldr	r2, [pc, #40]	; (3430 <WWDT_GetDefaultConfig+0x34>)
    3406:	480b      	ldr	r0, [pc, #44]	; (3434 <WWDT_GetDefaultConfig+0x38>)
    3408:	215e      	movs	r1, #94	; 0x5e
    340a:	f004 fc35 	bl	7c78 <__assert_func>
    340e:	2214      	movs	r2, #20
    3410:	2100      	movs	r1, #0
    3412:	f023 fef7 	bl	27204 <memset>
    3416:	2301      	movs	r3, #1
    3418:	8023      	strh	r3, [r4, #0]
    341a:	f06f 427f 	mvn.w	r2, #4278190080	; 0xff000000
    341e:	2300      	movs	r3, #0
    3420:	e9c4 2201 	strd	r2, r2, [r4, #4]
    3424:	e9c4 3303 	strd	r3, r3, [r4, #12]
    3428:	70a3      	strb	r3, [r4, #2]
    342a:	bd10      	pop	{r4, pc}
    342c:	0002969f 	.word	0x0002969f
    3430:	000296da 	.word	0x000296da
    3434:	00029653 	.word	0x00029653

00003438 <WWDT_Init>:
    3438:	b538      	push	{r3, r4, r5, lr}
    343a:	4604      	mov	r4, r0
    343c:	460d      	mov	r5, r1
    343e:	b929      	cbnz	r1, 344c <WWDT_Init+0x14>
    3440:	4b26      	ldr	r3, [pc, #152]	; (34dc <WWDT_Init+0xa4>)
    3442:	4a27      	ldr	r2, [pc, #156]	; (34e0 <WWDT_Init+0xa8>)
    3444:	2189      	movs	r1, #137	; 0x89
    3446:	4827      	ldr	r0, [pc, #156]	; (34e4 <WWDT_Init+0xac>)
    3448:	f004 fc16 	bl	7c78 <__assert_func>
    344c:	f7ff ffc2 	bl	33d4 <WWDT_GetInstance>
    3450:	2016      	movs	r0, #22
    3452:	f000 fc39 	bl	3cc8 <CLOCK_EnableClock>
    3456:	4620      	mov	r0, r4
    3458:	f7ff ffbc 	bl	33d4 <WWDT_GetInstance>
    345c:	2016      	movs	r0, #22
    345e:	f000 fcf9 	bl	3e54 <RESET_PeripheralReset>
    3462:	4b21      	ldr	r3, [pc, #132]	; (34e8 <WWDT_Init+0xb0>)
    3464:	2210      	movs	r2, #16
    3466:	671a      	str	r2, [r3, #112]	; 0x70
    3468:	681a      	ldr	r2, [r3, #0]
    346a:	f042 0208 	orr.w	r2, r2, #8
    346e:	601a      	str	r2, [r3, #0]
    3470:	786a      	ldrb	r2, [r5, #1]
    3472:	782b      	ldrb	r3, [r5, #0]
    3474:	ea43 0342 	orr.w	r3, r3, r2, lsl #1
    3478:	6822      	ldr	r2, [r4, #0]
    347a:	0712      	lsls	r2, r2, #28
    347c:	bf48      	it	mi
    347e:	f043 0308 	orrmi.w	r3, r3, #8
    3482:	f3ef 8110 	mrs	r1, PRIMASK
    3486:	b672      	cpsid	i
    3488:	68aa      	ldr	r2, [r5, #8]
    348a:	f022 427f 	bic.w	r2, r2, #4278190080	; 0xff000000
    348e:	6062      	str	r2, [r4, #4]
    3490:	6023      	str	r3, [r4, #0]
    3492:	686b      	ldr	r3, [r5, #4]
    3494:	f023 437f 	bic.w	r3, r3, #4278190080	; 0xff000000
    3498:	61a3      	str	r3, [r4, #24]
    349a:	68eb      	ldr	r3, [r5, #12]
    349c:	f3c3 0309 	ubfx	r3, r3, #0, #10
    34a0:	6163      	str	r3, [r4, #20]
    34a2:	23aa      	movs	r3, #170	; 0xaa
    34a4:	60a3      	str	r3, [r4, #8]
    34a6:	2355      	movs	r3, #85	; 0x55
    34a8:	60a3      	str	r3, [r4, #8]
    34aa:	f381 8810 	msr	PRIMASK, r1
    34ae:	78ab      	ldrb	r3, [r5, #2]
    34b0:	b19b      	cbz	r3, 34da <WWDT_Init+0xa2>
    34b2:	6823      	ldr	r3, [r4, #0]
    34b4:	06db      	lsls	r3, r3, #27
    34b6:	d410      	bmi.n	34da <WWDT_Init+0xa2>
    34b8:	692b      	ldr	r3, [r5, #16]
    34ba:	b91b      	cbnz	r3, 34c4 <WWDT_Init+0x8c>
    34bc:	4b0b      	ldr	r3, [pc, #44]	; (34ec <WWDT_Init+0xb4>)
    34be:	4a08      	ldr	r2, [pc, #32]	; (34e0 <WWDT_Init+0xa8>)
    34c0:	21bc      	movs	r1, #188	; 0xbc
    34c2:	e7c0      	b.n	3446 <WWDT_Init+0xe>
    34c4:	480a      	ldr	r0, [pc, #40]	; (34f0 <WWDT_Init+0xb8>)
    34c6:	490b      	ldr	r1, [pc, #44]	; (34f4 <WWDT_Init+0xbc>)
    34c8:	fbb0 f0f3 	udiv	r0, r0, r3
    34cc:	3001      	adds	r0, #1
    34ce:	f001 f82f 	bl	4530 <SDK_DelayAtLeastUs>
    34d2:	6823      	ldr	r3, [r4, #0]
    34d4:	f043 0310 	orr.w	r3, r3, #16
    34d8:	6023      	str	r3, [r4, #0]
    34da:	bd38      	pop	{r3, r4, r5, pc}
    34dc:	0002969f 	.word	0x0002969f
    34e0:	000296f0 	.word	0x000296f0
    34e4:	00029653 	.word	0x00029653
    34e8:	40012000 	.word	0x40012000
    34ec:	000296ae 	.word	0x000296ae
    34f0:	002dc6c0 	.word	0x002dc6c0
    34f4:	02dc6c00 	.word	0x02dc6c00

000034f8 <WWDT_Deinit>:
    34f8:	b508      	push	{r3, lr}
    34fa:	f7ff ff6b 	bl	33d4 <WWDT_GetInstance>
    34fe:	e8bd 4008 	ldmia.w	sp!, {r3, lr}
    3502:	2016      	movs	r0, #22
    3504:	f000 baae 	b.w	3a64 <CLOCK_DisableClock>

00003508 <WWDT_Refresh>:
    3508:	f3ef 8310 	mrs	r3, PRIMASK
    350c:	b672      	cpsid	i
    350e:	22aa      	movs	r2, #170	; 0xaa
    3510:	6082      	str	r2, [r0, #8]
    3512:	2255      	movs	r2, #85	; 0x55
    3514:	6082      	str	r2, [r0, #8]
    3516:	f383 8810 	msr	PRIMASK, r3
    351a:	4770      	bx	lr

0000351c <WWDT_ClearStatusFlags>:
    351c:	b510      	push	{r4, lr}
    351e:	074c      	lsls	r4, r1, #29
    3520:	6803      	ldr	r3, [r0, #0]
    3522:	bf43      	ittte	mi
    3524:	4a06      	ldrmi	r2, [pc, #24]	; (3540 <WWDT_ClearStatusFlags+0x24>)
    3526:	2410      	movmi	r4, #16
    3528:	f023 030c 	bicmi.w	r3, r3, #12
    352c:	f023 0308 	bicpl.w	r3, r3, #8
    3530:	bf48      	it	mi
    3532:	6714      	strmi	r4, [r2, #112]	; 0x70
    3534:	070a      	lsls	r2, r1, #28
    3536:	bf48      	it	mi
    3538:	f043 0308 	orrmi.w	r3, r3, #8
    353c:	6003      	str	r3, [r0, #0]
    353e:	bd10      	pop	{r4, pc}
    3540:	40012000 	.word	0x40012000

00003544 <CLOCK_u8OscCapConvert>:
    3544:	283f      	cmp	r0, #63	; 0x3f
    3546:	d804      	bhi.n	3552 <CLOCK_u8OscCapConvert+0xe>
    3548:	4281      	cmp	r1, r0
    354a:	d808      	bhi.n	355e <CLOCK_u8OscCapConvert+0x1a>
    354c:	1a40      	subs	r0, r0, r1
    354e:	b2c0      	uxtb	r0, r0
    3550:	4770      	bx	lr
    3552:	f1c1 037f 	rsb	r3, r1, #127	; 0x7f
    3556:	4283      	cmp	r3, r0
    3558:	d303      	bcc.n	3562 <CLOCK_u8OscCapConvert+0x1e>
    355a:	4408      	add	r0, r1
    355c:	e7f7      	b.n	354e <CLOCK_u8OscCapConvert+0xa>
    355e:	2000      	movs	r0, #0
    3560:	e7f5      	b.n	354e <CLOCK_u8OscCapConvert+0xa>
    3562:	207f      	movs	r0, #127	; 0x7f
    3564:	e7f3      	b.n	354e <CLOCK_u8OscCapConvert+0xa>
    3566:	Address 0x00003566 is out of bounds.


00003568 <CLOCK_AttachClk>:
    3568:	f242 03bd 	movw	r3, #8381	; 0x20bd
    356c:	4298      	cmp	r0, r3
    356e:	d822      	bhi.n	35b6 <CLOCK_AttachClk+0x4e>
    3570:	f242 03a0 	movw	r3, #8352	; 0x20a0
    3574:	4298      	cmp	r0, r3
    3576:	d80e      	bhi.n	3596 <CLOCK_AttachClk+0x2e>
    3578:	f241 03a9 	movw	r3, #4265	; 0x10a9
    357c:	4298      	cmp	r0, r3
    357e:	d012      	beq.n	35a6 <CLOCK_AttachClk+0x3e>
    3580:	f3c0 030b 	ubfx	r3, r0, #0, #12
    3584:	2bb1      	cmp	r3, #177	; 0xb1
    3586:	d843      	bhi.n	3610 <CLOCK_AttachClk+0xa8>
    3588:	2ba7      	cmp	r3, #167	; 0xa7
    358a:	d81b      	bhi.n	35c4 <CLOCK_AttachClk+0x5c>
    358c:	2ba2      	cmp	r3, #162	; 0xa2
    358e:	d047      	beq.n	3620 <CLOCK_AttachClk+0xb8>
    3590:	2800      	cmp	r0, #0
    3592:	d13f      	bne.n	3614 <CLOCK_AttachClk+0xac>
    3594:	4770      	bx	lr
    3596:	f5a0 5202 	sub.w	r2, r0, #8320	; 0x2080
    359a:	3a21      	subs	r2, #33	; 0x21
    359c:	2301      	movs	r3, #1
    359e:	4093      	lsls	r3, r2
    35a0:	4a30      	ldr	r2, [pc, #192]	; (3664 <CLOCK_AttachClk+0xfc>)
    35a2:	4213      	tst	r3, r2
    35a4:	d0ec      	beq.n	3580 <CLOCK_AttachClk+0x18>
    35a6:	4a30      	ldr	r2, [pc, #192]	; (3668 <CLOCK_AttachClk+0x100>)
    35a8:	f8d2 30ac 	ldr.w	r3, [r2, #172]	; 0xac
    35ac:	f043 5380 	orr.w	r3, r3, #268435456	; 0x10000000
    35b0:	f8c2 30ac 	str.w	r3, [r2, #172]	; 0xac
    35b4:	e7e4      	b.n	3580 <CLOCK_AttachClk+0x18>
    35b6:	f243 03a0 	movw	r3, #12448	; 0x30a0
    35ba:	4298      	cmp	r0, r3
    35bc:	d0f3      	beq.n	35a6 <CLOCK_AttachClk+0x3e>
    35be:	f244 03a2 	movw	r3, #16546	; 0x40a2
    35c2:	e7db      	b.n	357c <CLOCK_AttachClk+0x14>
    35c4:	3ba8      	subs	r3, #168	; 0xa8
    35c6:	2b09      	cmp	r3, #9
    35c8:	d824      	bhi.n	3614 <CLOCK_AttachClk+0xac>
    35ca:	e8df f003 	tbb	[pc, r3]
    35ce:	2527      	.short	0x2527
    35d0:	23232323 	.word	0x23232323
    35d4:	2b230523 	.word	0x2b230523
    35d8:	23de      	movs	r3, #222	; 0xde
    35da:	009a      	lsls	r2, r3, #2
    35dc:	f102 4280 	add.w	r2, r2, #1073741824	; 0x40000000
    35e0:	6811      	ldr	r1, [r2, #0]
    35e2:	f041 4180 	orr.w	r1, r1, #1073741824	; 0x40000000
    35e6:	6011      	str	r1, [r2, #0]
    35e8:	b150      	cbz	r0, 3600 <CLOCK_AttachClk+0x98>
    35ea:	b2c2      	uxtb	r2, r0
    35ec:	f3c0 3003 	ubfx	r0, r0, #12, #4
    35f0:	3801      	subs	r0, #1
    35f2:	2abd      	cmp	r2, #189	; 0xbd
    35f4:	b2c0      	uxtb	r0, r0
    35f6:	d119      	bne.n	362c <CLOCK_AttachClk+0xc4>
    35f8:	4a1b      	ldr	r2, [pc, #108]	; (3668 <CLOCK_AttachClk+0x100>)
    35fa:	6210      	str	r0, [r2, #32]
    35fc:	2b00      	cmp	r3, #0
    35fe:	d0c9      	beq.n	3594 <CLOCK_AttachClk+0x2c>
    3600:	009b      	lsls	r3, r3, #2
    3602:	f103 4380 	add.w	r3, r3, #1073741824	; 0x40000000
    3606:	681a      	ldr	r2, [r3, #0]
    3608:	f022 4280 	bic.w	r2, r2, #1073741824	; 0x40000000
    360c:	601a      	str	r2, [r3, #0]
    360e:	4770      	bx	lr
    3610:	2bbb      	cmp	r3, #187	; 0xbb
    3612:	d009      	beq.n	3628 <CLOCK_AttachClk+0xc0>
    3614:	2300      	movs	r3, #0
    3616:	e7e8      	b.n	35ea <CLOCK_AttachClk+0x82>
    3618:	23e5      	movs	r3, #229	; 0xe5
    361a:	e7de      	b.n	35da <CLOCK_AttachClk+0x72>
    361c:	23e4      	movs	r3, #228	; 0xe4
    361e:	e7dc      	b.n	35da <CLOCK_AttachClk+0x72>
    3620:	23e1      	movs	r3, #225	; 0xe1
    3622:	e7da      	b.n	35da <CLOCK_AttachClk+0x72>
    3624:	23db      	movs	r3, #219	; 0xdb
    3626:	e7d8      	b.n	35da <CLOCK_AttachClk+0x72>
    3628:	23ea      	movs	r3, #234	; 0xea
    362a:	e7d6      	b.n	35da <CLOCK_AttachClk+0x72>
    362c:	2aa1      	cmp	r2, #161	; 0xa1
    362e:	d112      	bne.n	3656 <CLOCK_AttachClk+0xee>
    3630:	4a0e      	ldr	r2, [pc, #56]	; (366c <CLOCK_AttachClk+0x104>)
    3632:	2801      	cmp	r0, #1
    3634:	6811      	ldr	r1, [r2, #0]
    3636:	d806      	bhi.n	3646 <CLOCK_AttachClk+0xde>
    3638:	f021 0101 	bic.w	r1, r1, #1
    363c:	6011      	str	r1, [r2, #0]
    363e:	6811      	ldr	r1, [r2, #0]
    3640:	4308      	orrs	r0, r1
    3642:	6010      	str	r0, [r2, #0]
    3644:	e7da      	b.n	35fc <CLOCK_AttachClk+0x94>
    3646:	f021 0102 	bic.w	r1, r1, #2
    364a:	6011      	str	r1, [r2, #0]
    364c:	6811      	ldr	r1, [r2, #0]
    364e:	3802      	subs	r0, #2
    3650:	ea41 0040 	orr.w	r0, r1, r0, lsl #1
    3654:	e7f5      	b.n	3642 <CLOCK_AttachClk+0xda>
    3656:	2ab3      	cmp	r2, #179	; 0xb3
    3658:	d0d0      	beq.n	35fc <CLOCK_AttachClk+0x94>
    365a:	0092      	lsls	r2, r2, #2
    365c:	f102 4280 	add.w	r2, r2, #1073741824	; 0x40000000
    3660:	e7ef      	b.n	3642 <CLOCK_AttachClk+0xda>
    3662:	bf00      	nop
    3664:	10000081 	.word	0x10000081
    3668:	40020000 	.word	0x40020000
    366c:	40000284 	.word	0x40000284

00003670 <CLOCK_SetClkDiv>:
    3670:	f000 03f7 	and.w	r3, r0, #247	; 0xf7
    3674:	2be0      	cmp	r3, #224	; 0xe0
    3676:	b510      	push	{r4, lr}
    3678:	d01b      	beq.n	36b2 <CLOCK_SetClkDiv+0x42>
    367a:	0083      	lsls	r3, r0, #2
    367c:	f103 4380 	add.w	r3, r3, #1073741824	; 0x40000000
    3680:	681c      	ldr	r4, [r3, #0]
    3682:	f044 4480 	orr.w	r4, r4, #1073741824	; 0x40000000
    3686:	601c      	str	r4, [r3, #0]
    3688:	b9a9      	cbnz	r1, 36b6 <CLOCK_SetClkDiv+0x46>
    368a:	28e8      	cmp	r0, #232	; 0xe8
    368c:	d100      	bne.n	3690 <CLOCK_SetClkDiv+0x20>
    368e:	bd10      	pop	{r4, pc}
    3690:	0080      	lsls	r0, r0, #2
    3692:	f100 4080 	add.w	r0, r0, #1073741824	; 0x40000000
    3696:	b13a      	cbz	r2, 36a8 <CLOCK_SetClkDiv+0x38>
    3698:	6803      	ldr	r3, [r0, #0]
    369a:	f043 5300 	orr.w	r3, r3, #536870912	; 0x20000000
    369e:	6003      	str	r3, [r0, #0]
    36a0:	6803      	ldr	r3, [r0, #0]
    36a2:	f023 5300 	bic.w	r3, r3, #536870912	; 0x20000000
    36a6:	6003      	str	r3, [r0, #0]
    36a8:	6803      	ldr	r3, [r0, #0]
    36aa:	f023 4380 	bic.w	r3, r3, #1073741824	; 0x40000000
    36ae:	6003      	str	r3, [r0, #0]
    36b0:	e7ed      	b.n	368e <CLOCK_SetClkDiv+0x1e>
    36b2:	2900      	cmp	r1, #0
    36b4:	d0eb      	beq.n	368e <CLOCK_SetClkDiv+0x1e>
    36b6:	0083      	lsls	r3, r0, #2
    36b8:	f103 4380 	add.w	r3, r3, #1073741824	; 0x40000000
    36bc:	3901      	subs	r1, #1
    36be:	f041 4180 	orr.w	r1, r1, #1073741824	; 0x40000000
    36c2:	28e0      	cmp	r0, #224	; 0xe0
    36c4:	6019      	str	r1, [r3, #0]
    36c6:	d1e0      	bne.n	368a <CLOCK_SetClkDiv+0x1a>
    36c8:	e7e1      	b.n	368e <CLOCK_SetClkDiv+0x1e>
    36ca:	Address 0x000036ca is out of bounds.


000036cc <CLOCK_GetXtal32kFreq>:
    36cc:	4b04      	ldr	r3, [pc, #16]	; (36e0 <CLOCK_GetXtal32kFreq+0x14>)
    36ce:	f8d3 00b8 	ldr.w	r0, [r3, #184]	; 0xb8
    36d2:	f010 6080 	ands.w	r0, r0, #67108864	; 0x4000000
    36d6:	bf18      	it	ne
    36d8:	f44f 4000 	movne.w	r0, #32768	; 0x8000
    36dc:	4770      	bx	lr
    36de:	bf00      	nop
    36e0:	40012000 	.word	0x40012000

000036e4 <CLOCK_GetFro32kFreq>:
    36e4:	4b04      	ldr	r3, [pc, #16]	; (36f8 <CLOCK_GetFro32kFreq+0x14>)
    36e6:	f8d3 00b8 	ldr.w	r0, [r3, #184]	; 0xb8
    36ea:	f010 7000 	ands.w	r0, r0, #33554432	; 0x2000000
    36ee:	bf18      	it	ne
    36f0:	f44f 4000 	movne.w	r0, #32768	; 0x8000
    36f4:	4770      	bx	lr
    36f6:	bf00      	nop
    36f8:	40012000 	.word	0x40012000

000036fc <CLOCK_GetOsc32kFreq>:
    36fc:	f04f 4380 	mov.w	r3, #1073741824	; 0x40000000
    3700:	f8d3 3284 	ldr.w	r3, [r3, #644]	; 0x284
    3704:	079b      	lsls	r3, r3, #30
    3706:	d501      	bpl.n	370c <CLOCK_GetOsc32kFreq+0x10>
    3708:	f7ff bfe0 	b.w	36cc <CLOCK_GetXtal32kFreq>
    370c:	f7ff bfea 	b.w	36e4 <CLOCK_GetFro32kFreq>

00003710 <CLOCK_GetFro12MFreq>:
    3710:	4b03      	ldr	r3, [pc, #12]	; (3720 <CLOCK_GetFro12MFreq+0x10>)
    3712:	6c18      	ldr	r0, [r3, #64]	; 0x40
    3714:	4b03      	ldr	r3, [pc, #12]	; (3724 <CLOCK_GetFro12MFreq+0x14>)
    3716:	f410 1080 	ands.w	r0, r0, #1048576	; 0x100000
    371a:	bf18      	it	ne
    371c:	4618      	movne	r0, r3
    371e:	4770      	bx	lr
    3720:	40012000 	.word	0x40012000
    3724:	00b71b00 	.word	0x00b71b00

00003728 <CLOCK_GetFro32MFreq>:
    3728:	4b03      	ldr	r3, [pc, #12]	; (3738 <CLOCK_GetFro32MFreq+0x10>)
    372a:	6c18      	ldr	r0, [r3, #64]	; 0x40
    372c:	4b03      	ldr	r3, [pc, #12]	; (373c <CLOCK_GetFro32MFreq+0x14>)
    372e:	f410 1000 	ands.w	r0, r0, #2097152	; 0x200000
    3732:	bf18      	it	ne
    3734:	4618      	movne	r0, r3
    3736:	4770      	bx	lr
    3738:	40012000 	.word	0x40012000
    373c:	01e84800 	.word	0x01e84800

00003740 <CLOCK_GetOsc32MFreq>:
    3740:	f04f 4380 	mov.w	r3, #1073741824	; 0x40000000
    3744:	f8d3 3284 	ldr.w	r3, [r3, #644]	; 0x284
    3748:	07db      	lsls	r3, r3, #31
    374a:	d401      	bmi.n	3750 <CLOCK_GetOsc32MFreq+0x10>
    374c:	f7ff bfec 	b.w	3728 <CLOCK_GetFro32MFreq>
    3750:	4800      	ldr	r0, [pc, #0]	; (3754 <CLOCK_GetOsc32MFreq+0x14>)
    3752:	4770      	bx	lr
    3754:	01e84800 	.word	0x01e84800

00003758 <CLOCK_GetWdtOscFreq>:
    3758:	f04f 4380 	mov.w	r3, #1073741824	; 0x40000000
    375c:	f8d3 32c4 	ldr.w	r3, [r3, #708]	; 0x2c4
    3760:	f003 0303 	and.w	r3, r3, #3
    3764:	2b02      	cmp	r3, #2
    3766:	d007      	beq.n	3778 <CLOCK_GetWdtOscFreq+0x20>
    3768:	2b03      	cmp	r3, #3
    376a:	d007      	beq.n	377c <CLOCK_GetWdtOscFreq+0x24>
    376c:	2b01      	cmp	r3, #1
    376e:	d001      	beq.n	3774 <CLOCK_GetWdtOscFreq+0x1c>
    3770:	f7ff bfe6 	b.w	3740 <CLOCK_GetOsc32MFreq>
    3774:	f7ff bfc2 	b.w	36fc <CLOCK_GetOsc32kFreq>
    3778:	4801      	ldr	r0, [pc, #4]	; (3780 <CLOCK_GetWdtOscFreq+0x28>)
    377a:	4770      	bx	lr
    377c:	2000      	movs	r0, #0
    377e:	4770      	bx	lr
    3780:	000f4240 	.word	0x000f4240

00003784 <CLOCK_GetFro48MFreq>:
    3784:	4b03      	ldr	r3, [pc, #12]	; (3794 <CLOCK_GetFro48MFreq+0x10>)
    3786:	6c18      	ldr	r0, [r3, #64]	; 0x40
    3788:	4b03      	ldr	r3, [pc, #12]	; (3798 <CLOCK_GetFro48MFreq+0x14>)
    378a:	f410 0080 	ands.w	r0, r0, #4194304	; 0x400000
    378e:	bf18      	it	ne
    3790:	4618      	movne	r0, r3
    3792:	4770      	bx	lr
    3794:	40012000 	.word	0x40012000
    3798:	02dc6c00 	.word	0x02dc6c00

0000379c <CLOCK_GetPWMClockFreq>:
    379c:	f04f 4380 	mov.w	r3, #1073741824	; 0x40000000
    37a0:	f8d3 32c0 	ldr.w	r3, [r3, #704]	; 0x2c0
    37a4:	f013 0303 	ands.w	r3, r3, #3
    37a8:	d003      	beq.n	37b2 <CLOCK_GetPWMClockFreq+0x16>
    37aa:	2b01      	cmp	r3, #1
    37ac:	d003      	beq.n	37b6 <CLOCK_GetPWMClockFreq+0x1a>
    37ae:	2000      	movs	r0, #0
    37b0:	4770      	bx	lr
    37b2:	f7ff bfc5 	b.w	3740 <CLOCK_GetOsc32MFreq>
    37b6:	f7ff bfe5 	b.w	3784 <CLOCK_GetFro48MFreq>
    37ba:	Address 0x000037ba is out of bounds.


000037bc <CLOCK_GetMainClockRate>:
    37bc:	f04f 4380 	mov.w	r3, #1073741824	; 0x40000000
    37c0:	f8d3 3280 	ldr.w	r3, [r3, #640]	; 0x280
    37c4:	f003 0307 	and.w	r3, r3, #7
    37c8:	2b06      	cmp	r3, #6
    37ca:	d811      	bhi.n	37f0 <CLOCK_GetMainClockRate+0x34>
    37cc:	e8df f003 	tbb	[pc, r3]
    37d0:	0a040806 	.word	0x0a040806
    37d4:	100c      	.short	0x100c
    37d6:	0e          	.byte	0x0e
    37d7:	00          	.byte	0x00
    37d8:	4806      	ldr	r0, [pc, #24]	; (37f4 <CLOCK_GetMainClockRate+0x38>)
    37da:	4770      	bx	lr
    37dc:	f7ff bf98 	b.w	3710 <CLOCK_GetFro12MFreq>
    37e0:	f7ff bf8c 	b.w	36fc <CLOCK_GetOsc32kFreq>
    37e4:	f7ff bfa0 	b.w	3728 <CLOCK_GetFro32MFreq>
    37e8:	f7ff bfcc 	b.w	3784 <CLOCK_GetFro48MFreq>
    37ec:	4802      	ldr	r0, [pc, #8]	; (37f8 <CLOCK_GetMainClockRate+0x3c>)
    37ee:	4770      	bx	lr
    37f0:	2000      	movs	r0, #0
    37f2:	4770      	bx	lr
    37f4:	01e84800 	.word	0x01e84800
    37f8:	000f4240 	.word	0x000f4240

000037fc <CLOCK_GetCoreSysClkFreq>:
    37fc:	b508      	push	{r3, lr}
    37fe:	f7ff ffdd 	bl	37bc <CLOCK_GetMainClockRate>
    3802:	f04f 4380 	mov.w	r3, #1073741824	; 0x40000000
    3806:	f8d3 3380 	ldr.w	r3, [r3, #896]	; 0x380
    380a:	b2db      	uxtb	r3, r3
    380c:	3301      	adds	r3, #1
    380e:	fbb0 f0f3 	udiv	r0, r0, r3
    3812:	bd08      	pop	{r3, pc}

00003814 <CLOCK_GetFRGInputClock>:
    3814:	f04f 4380 	mov.w	r3, #1073741824	; 0x40000000
    3818:	f8d3 32e8 	ldr.w	r3, [r3, #744]	; 0x2e8
    381c:	f003 0303 	and.w	r3, r3, #3
    3820:	2b01      	cmp	r3, #1
    3822:	d004      	beq.n	382e <CLOCK_GetFRGInputClock+0x1a>
    3824:	2b02      	cmp	r3, #2
    3826:	d004      	beq.n	3832 <CLOCK_GetFRGInputClock+0x1e>
    3828:	b92b      	cbnz	r3, 3836 <CLOCK_GetFRGInputClock+0x22>
    382a:	f7ff bfc7 	b.w	37bc <CLOCK_GetMainClockRate>
    382e:	f7ff bf87 	b.w	3740 <CLOCK_GetOsc32MFreq>
    3832:	f7ff bfa7 	b.w	3784 <CLOCK_GetFro48MFreq>
    3836:	2000      	movs	r0, #0
    3838:	4770      	bx	lr

0000383a <CLOCK_GetFRGClock>:
    383a:	b510      	push	{r4, lr}
    383c:	f04f 4480 	mov.w	r4, #1073741824	; 0x40000000
    3840:	f8d4 33a0 	ldr.w	r3, [r4, #928]	; 0x3a0
    3844:	b2db      	uxtb	r3, r3
    3846:	2bff      	cmp	r3, #255	; 0xff
    3848:	d10e      	bne.n	3868 <CLOCK_GetFRGClock+0x2e>
    384a:	f7ff ffe3 	bl	3814 <CLOCK_GetFRGInputClock>
    384e:	f8d4 23a0 	ldr.w	r2, [r4, #928]	; 0x3a0
    3852:	4601      	mov	r1, r0
    3854:	f3c2 2207 	ubfx	r2, r2, #8, #8
    3858:	f502 7280 	add.w	r2, r2, #256	; 0x100
    385c:	2300      	movs	r3, #0
    385e:	0200      	lsls	r0, r0, #8
    3860:	0e09      	lsrs	r1, r1, #24
    3862:	f023 fa87 	bl	26d74 <__aeabi_uldivmod>
    3866:	bd10      	pop	{r4, pc}
    3868:	2000      	movs	r0, #0
    386a:	e7fc      	b.n	3866 <CLOCK_GetFRGClock+0x2c>

0000386c <CLOCK_GetFro64MFreq>:
    386c:	4b03      	ldr	r3, [pc, #12]	; (387c <CLOCK_GetFro64MFreq+0x10>)
    386e:	6c18      	ldr	r0, [r3, #64]	; 0x40
    3870:	4b03      	ldr	r3, [pc, #12]	; (3880 <CLOCK_GetFro64MFreq+0x14>)
    3872:	f410 0000 	ands.w	r0, r0, #8388608	; 0x800000
    3876:	bf18      	it	ne
    3878:	4618      	movne	r0, r3
    387a:	4770      	bx	lr
    387c:	40012000 	.word	0x40012000
    3880:	03d09000 	.word	0x03d09000

00003884 <CLOCK_GetClkOutFreq>:
    3884:	f04f 4280 	mov.w	r2, #1073741824	; 0x40000000
    3888:	b508      	push	{r3, lr}
    388a:	f8d2 3288 	ldr.w	r3, [r2, #648]	; 0x288
    388e:	f003 0307 	and.w	r3, r3, #7
    3892:	3b01      	subs	r3, #1
    3894:	4611      	mov	r1, r2
    3896:	2b06      	cmp	r3, #6
    3898:	d80e      	bhi.n	38b8 <CLOCK_GetClkOutFreq+0x34>
    389a:	e8df f003 	tbb	[pc, r3]
    389e:	1310      	.short	0x1310
    38a0:	0419161e 	.word	0x0419161e
    38a4:	1c          	.byte	0x1c
    38a5:	00          	.byte	0x00
    38a6:	480e      	ldr	r0, [pc, #56]	; (38e0 <CLOCK_GetClkOutFreq+0x5c>)
    38a8:	f8d1 3384 	ldr.w	r3, [r1, #900]	; 0x384
    38ac:	f003 030f 	and.w	r3, r3, #15
    38b0:	3301      	adds	r3, #1
    38b2:	fbb0 f0f3 	udiv	r0, r0, r3
    38b6:	bd08      	pop	{r3, pc}
    38b8:	f7ff ff80 	bl	37bc <CLOCK_GetMainClockRate>
    38bc:	e7f4      	b.n	38a8 <CLOCK_GetClkOutFreq+0x24>
    38be:	f7ff ff05 	bl	36cc <CLOCK_GetXtal32kFreq>
    38c2:	e7f1      	b.n	38a8 <CLOCK_GetClkOutFreq+0x24>
    38c4:	f7ff ff0e 	bl	36e4 <CLOCK_GetFro32kFreq>
    38c8:	e7ee      	b.n	38a8 <CLOCK_GetClkOutFreq+0x24>
    38ca:	f7ff ffcf 	bl	386c <CLOCK_GetFro64MFreq>
    38ce:	e7eb      	b.n	38a8 <CLOCK_GetClkOutFreq+0x24>
    38d0:	f7ff ff58 	bl	3784 <CLOCK_GetFro48MFreq>
    38d4:	e7e8      	b.n	38a8 <CLOCK_GetClkOutFreq+0x24>
    38d6:	2000      	movs	r0, #0
    38d8:	e7e6      	b.n	38a8 <CLOCK_GetClkOutFreq+0x24>
    38da:	4802      	ldr	r0, [pc, #8]	; (38e4 <CLOCK_GetClkOutFreq+0x60>)
    38dc:	e7e4      	b.n	38a8 <CLOCK_GetClkOutFreq+0x24>
    38de:	bf00      	nop
    38e0:	000f4240 	.word	0x000f4240
    38e4:	01e84800 	.word	0x01e84800

000038e8 <CLOCK_GetSpifiOscFreq>:
    38e8:	b508      	push	{r3, lr}
    38ea:	f04f 4380 	mov.w	r3, #1073741824	; 0x40000000
    38ee:	4619      	mov	r1, r3
    38f0:	f8d3 22a0 	ldr.w	r2, [r3, #672]	; 0x2a0
    38f4:	f002 0207 	and.w	r2, r2, #7
    38f8:	2a03      	cmp	r2, #3
    38fa:	d803      	bhi.n	3904 <CLOCK_GetSpifiOscFreq+0x1c>
    38fc:	e8df f002 	tbb	[pc, r2]
    3900:	110e140b 	.word	0x110e140b
    3904:	2000      	movs	r0, #0
    3906:	f8d1 3390 	ldr.w	r3, [r1, #912]	; 0x390
    390a:	f003 0303 	and.w	r3, r3, #3
    390e:	3301      	adds	r3, #1
    3910:	fbb0 f0f3 	udiv	r0, r0, r3
    3914:	bd08      	pop	{r3, pc}
    3916:	f7ff ff51 	bl	37bc <CLOCK_GetMainClockRate>
    391a:	e7f4      	b.n	3906 <CLOCK_GetSpifiOscFreq+0x1e>
    391c:	f7ff ffa6 	bl	386c <CLOCK_GetFro64MFreq>
    3920:	e7f1      	b.n	3906 <CLOCK_GetSpifiOscFreq+0x1e>
    3922:	f7ff ff2f 	bl	3784 <CLOCK_GetFro48MFreq>
    3926:	e7ee      	b.n	3906 <CLOCK_GetSpifiOscFreq+0x1e>
    3928:	4800      	ldr	r0, [pc, #0]	; (392c <CLOCK_GetSpifiOscFreq+0x44>)
    392a:	e7ec      	b.n	3906 <CLOCK_GetSpifiOscFreq+0x1e>
    392c:	01e84800 	.word	0x01e84800

00003930 <CLOCK_GetApbCLkFreq>:
    3930:	4b08      	ldr	r3, [pc, #32]	; (3954 <CLOCK_GetApbCLkFreq+0x24>)
    3932:	6a1b      	ldr	r3, [r3, #32]
    3934:	f003 0303 	and.w	r3, r3, #3
    3938:	2b02      	cmp	r3, #2
    393a:	d005      	beq.n	3948 <CLOCK_GetApbCLkFreq+0x18>
    393c:	2b03      	cmp	r3, #3
    393e:	d005      	beq.n	394c <CLOCK_GetApbCLkFreq+0x1c>
    3940:	2b01      	cmp	r3, #1
    3942:	d005      	beq.n	3950 <CLOCK_GetApbCLkFreq+0x20>
    3944:	f7ff bf3a 	b.w	37bc <CLOCK_GetMainClockRate>
    3948:	f7ff beee 	b.w	3728 <CLOCK_GetFro32MFreq>
    394c:	f7ff bf1a 	b.w	3784 <CLOCK_GetFro48MFreq>
    3950:	4801      	ldr	r0, [pc, #4]	; (3958 <CLOCK_GetApbCLkFreq+0x28>)
    3952:	4770      	bx	lr
    3954:	40020000 	.word	0x40020000
    3958:	01e84800 	.word	0x01e84800

0000395c <CLOCK_GetFreq>:
    395c:	b508      	push	{r3, lr}
    395e:	4b3e      	ldr	r3, [pc, #248]	; (3a58 <CLOCK_GetFreq+0xfc>)
    3960:	4298      	cmp	r0, r3
    3962:	d80a      	bhi.n	397a <CLOCK_GetFreq+0x1e>
    3964:	f5b0 3f80 	cmp.w	r0, #65536	; 0x10000
    3968:	d209      	bcs.n	397e <CLOCK_GetFreq+0x22>
    396a:	f5b0 7f89 	cmp.w	r0, #274	; 0x112
    396e:	d06d      	beq.n	3a4c <CLOCK_GetFreq+0xf0>
    3970:	d82c      	bhi.n	39cc <CLOCK_GetFreq+0x70>
    3972:	280a      	cmp	r0, #10
    3974:	d05b      	beq.n	3a2e <CLOCK_GetFreq+0xd2>
    3976:	2816      	cmp	r0, #22
    3978:	d05d      	beq.n	3a36 <CLOCK_GetFreq+0xda>
    397a:	2000      	movs	r0, #0
    397c:	e025      	b.n	39ca <CLOCK_GetFreq+0x6e>
    397e:	f5a0 3080 	sub.w	r0, r0, #65536	; 0x10000
    3982:	280e      	cmp	r0, #14
    3984:	d8f9      	bhi.n	397a <CLOCK_GetFreq+0x1e>
    3986:	a301      	add	r3, pc, #4	; (adr r3, 398c <CLOCK_GetFreq+0x30>)
    3988:	f853 f020 	ldr.w	pc, [r3, r0, lsl #2]
    398c:	000039df 	.word	0x000039df
    3990:	000039e7 	.word	0x000039e7
    3994:	000039e7 	.word	0x000039e7
    3998:	000039ef 	.word	0x000039ef
    399c:	00003a55 	.word	0x00003a55
    39a0:	000039f7 	.word	0x000039f7
    39a4:	000039c9 	.word	0x000039c9
    39a8:	000039ff 	.word	0x000039ff
    39ac:	00003a07 	.word	0x00003a07
    39b0:	00003a0f 	.word	0x00003a0f
    39b4:	00003a17 	.word	0x00003a17
    39b8:	0000397b 	.word	0x0000397b
    39bc:	00003a37 	.word	0x00003a37
    39c0:	00003a1f 	.word	0x00003a1f
    39c4:	00003a27 	.word	0x00003a27
    39c8:	4824      	ldr	r0, [pc, #144]	; (3a5c <CLOCK_GetFreq+0x100>)
    39ca:	bd08      	pop	{r3, pc}
    39cc:	f46f 7300 	mvn.w	r3, #512	; 0x200
    39d0:	4418      	add	r0, r3
    39d2:	2801      	cmp	r0, #1
    39d4:	d8d1      	bhi.n	397a <CLOCK_GetFreq+0x1e>
    39d6:	e8bd 4008 	ldmia.w	sp!, {r3, lr}
    39da:	f7ff bfa9 	b.w	3930 <CLOCK_GetApbCLkFreq>
    39de:	e8bd 4008 	ldmia.w	sp!, {r3, lr}
    39e2:	f7ff beeb 	b.w	37bc <CLOCK_GetMainClockRate>
    39e6:	e8bd 4008 	ldmia.w	sp!, {r3, lr}
    39ea:	f7ff bf07 	b.w	37fc <CLOCK_GetCoreSysClkFreq>
    39ee:	e8bd 4008 	ldmia.w	sp!, {r3, lr}
    39f2:	f7ff be6b 	b.w	36cc <CLOCK_GetXtal32kFreq>
    39f6:	e8bd 4008 	ldmia.w	sp!, {r3, lr}
    39fa:	f7ff be73 	b.w	36e4 <CLOCK_GetFro32kFreq>
    39fe:	e8bd 4008 	ldmia.w	sp!, {r3, lr}
    3a02:	f7ff be85 	b.w	3710 <CLOCK_GetFro12MFreq>
    3a06:	e8bd 4008 	ldmia.w	sp!, {r3, lr}
    3a0a:	f7ff be8d 	b.w	3728 <CLOCK_GetFro32MFreq>
    3a0e:	e8bd 4008 	ldmia.w	sp!, {r3, lr}
    3a12:	f7ff beb7 	b.w	3784 <CLOCK_GetFro48MFreq>
    3a16:	e8bd 4008 	ldmia.w	sp!, {r3, lr}
    3a1a:	f7ff bf27 	b.w	386c <CLOCK_GetFro64MFreq>
    3a1e:	e8bd 4008 	ldmia.w	sp!, {r3, lr}
    3a22:	f7ff bf0a 	b.w	383a <CLOCK_GetFRGClock>
    3a26:	e8bd 4008 	ldmia.w	sp!, {r3, lr}
    3a2a:	f7ff bf2b 	b.w	3884 <CLOCK_GetClkOutFreq>
    3a2e:	e8bd 4008 	ldmia.w	sp!, {r3, lr}
    3a32:	f7ff bf59 	b.w	38e8 <CLOCK_GetSpifiOscFreq>
    3a36:	f7ff fe8f 	bl	3758 <CLOCK_GetWdtOscFreq>
    3a3a:	f04f 4380 	mov.w	r3, #1073741824	; 0x40000000
    3a3e:	f8d3 336c 	ldr.w	r3, [r3, #876]	; 0x36c
    3a42:	b2db      	uxtb	r3, r3
    3a44:	3301      	adds	r3, #1
    3a46:	fbb0 f0f3 	udiv	r0, r0, r3
    3a4a:	e7be      	b.n	39ca <CLOCK_GetFreq+0x6e>
    3a4c:	e8bd 4008 	ldmia.w	sp!, {r3, lr}
    3a50:	f7ff bea4 	b.w	379c <CLOCK_GetPWMClockFreq>
    3a54:	4802      	ldr	r0, [pc, #8]	; (3a60 <CLOCK_GetFreq+0x104>)
    3a56:	e7b8      	b.n	39ca <CLOCK_GetFreq+0x6e>
    3a58:	0001000e 	.word	0x0001000e
    3a5c:	000f4240 	.word	0x000f4240
    3a60:	01e84800 	.word	0x01e84800

00003a64 <CLOCK_DisableClock>:
    3a64:	f5b0 7f00 	cmp.w	r0, #512	; 0x200
    3a68:	ea4f 2310 	mov.w	r3, r0, lsr #8
    3a6c:	d30c      	bcc.n	3a88 <CLOCK_DisableClock+0x24>
    3a6e:	2b02      	cmp	r3, #2
    3a70:	d014      	beq.n	3a9c <CLOCK_DisableClock+0x38>
    3a72:	f5a0 3080 	sub.w	r0, r0, #65536	; 0x10000
    3a76:	3803      	subs	r0, #3
    3a78:	2807      	cmp	r0, #7
    3a7a:	d831      	bhi.n	3ae0 <CLOCK_DisableClock+0x7c>
    3a7c:	e8df f000 	tbb	[pc, r0]
    3a80:	3015231d 	.word	0x3015231d
    3a84:	3b36312b 	.word	0x3b36312b
    3a88:	2201      	movs	r2, #1
    3a8a:	b2c0      	uxtb	r0, r0
    3a8c:	fa02 f000 	lsl.w	r0, r2, r0
    3a90:	3390      	adds	r3, #144	; 0x90
    3a92:	f04f 4280 	mov.w	r2, #1073741824	; 0x40000000
    3a96:	f842 0023 	str.w	r0, [r2, r3, lsl #2]
    3a9a:	4770      	bx	lr
    3a9c:	2301      	movs	r3, #1
    3a9e:	b2c0      	uxtb	r0, r0
    3aa0:	fa03 f000 	lsl.w	r0, r3, r0
    3aa4:	4b16      	ldr	r3, [pc, #88]	; (3b00 <CLOCK_DisableClock+0x9c>)
